	.text
	.file	"mas_blk_iosched_ufs_mq.c"
	.file	1 "/mnt/disk/jenkins/ci/workspace/chipset_pipeline_release/opensource/component_code/vendor/huawei/extra/build/build_script/kirin_kernel_release/kernel/block/mas_blk_iosched_ufs_mq.c"
	.file	2 "/mnt/disk/jenkins/ci/workspace/chipset_pipeline_release/opensource/component_code/vendor/huawei/extra/build/build_script/kirin_kernel_release/kernel/include/linux/blkdev.h"
	.file	3 "/mnt/disk/jenkins/ci/workspace/chipset_pipeline_release/opensource/component_code/vendor/huawei/extra/build/build_script/kirin_kernel_release/kernel/include/linux/types.h"
	.file	4 "/mnt/disk/jenkins/ci/workspace/chipset_pipeline_release/opensource/component_code/vendor/huawei/extra/build/build_script/kirin_kernel_release/kernel/include/linux/llist.h"
	.file	5 "/mnt/disk/jenkins/ci/workspace/chipset_pipeline_release/opensource/component_code/vendor/huawei/extra/build/build_script/kirin_kernel_release/kernel/include/linux/smp.h"
	.file	6 "/mnt/disk/jenkins/ci/workspace/chipset_pipeline_release/opensource/component_code/vendor/huawei/extra/build/build_script/kirin_kernel_release/kernel/include/asm-generic/int-ll64.h"
	.file	7 "/mnt/disk/jenkins/ci/workspace/chipset_pipeline_release/opensource/component_code/vendor/huawei/extra/build/build_script/kirin_kernel_release/kernel/arch/arm64/include/asm/spinlock_types.h"
	.file	8 "/mnt/disk/jenkins/ci/workspace/chipset_pipeline_release/opensource/component_code/vendor/huawei/extra/build/build_script/kirin_kernel_release/kernel/include/linux/spinlock_types.h"
	.file	9 "/mnt/disk/jenkins/ci/workspace/chipset_pipeline_release/opensource/component_code/vendor/huawei/extra/build/build_script/kirin_kernel_release/kernel/block/blk-mq.h"
	.file	10 "/mnt/disk/jenkins/ci/workspace/chipset_pipeline_release/opensource/component_code/vendor/huawei/extra/build/build_script/kirin_kernel_release/kernel/include/linux/kobject.h"
	.file	11 "/mnt/disk/jenkins/ci/workspace/chipset_pipeline_release/opensource/component_code/vendor/huawei/extra/build/build_script/kirin_kernel_release/kernel/include/uapi/asm-generic/posix_types.h"
	.file	12 "/mnt/disk/jenkins/ci/workspace/chipset_pipeline_release/opensource/component_code/vendor/huawei/extra/build/build_script/kirin_kernel_release/kernel/include/linux/sysfs.h"
	.file	13 "/mnt/disk/jenkins/ci/workspace/chipset_pipeline_release/opensource/component_code/vendor/huawei/extra/build/build_script/kirin_kernel_release/kernel/include/linux/kobject_ns.h"
	.file	14 "/mnt/disk/jenkins/ci/workspace/chipset_pipeline_release/opensource/component_code/vendor/huawei/extra/build/build_script/kirin_kernel_release/kernel/include/linux/kernfs.h"
	.file	15 "/mnt/disk/jenkins/ci/workspace/chipset_pipeline_release/opensource/component_code/vendor/huawei/extra/build/build_script/kirin_kernel_release/kernel/include/linux/rbtree.h"
	.file	16 "/mnt/disk/jenkins/ci/workspace/chipset_pipeline_release/opensource/component_code/vendor/huawei/extra/build/build_script/kirin_kernel_release/kernel/include/linux/radix-tree.h"
	.file	17 "/mnt/disk/jenkins/ci/workspace/chipset_pipeline_release/opensource/component_code/vendor/huawei/extra/build/build_script/kirin_kernel_release/kernel/include/linux/idr.h"
	.file	18 "/mnt/disk/jenkins/ci/workspace/chipset_pipeline_release/opensource/component_code/vendor/huawei/extra/build/build_script/kirin_kernel_release/kernel/include/linux/seq_file.h"
	.file	19 "/mnt/disk/jenkins/ci/workspace/chipset_pipeline_release/opensource/component_code/vendor/huawei/extra/build/build_script/kirin_kernel_release/kernel/include/asm-generic/atomic-long.h"
	.file	20 "/mnt/disk/jenkins/ci/workspace/chipset_pipeline_release/opensource/component_code/vendor/huawei/extra/build/build_script/kirin_kernel_release/kernel/include/linux/mutex.h"
	.file	21 "/mnt/disk/jenkins/ci/workspace/chipset_pipeline_release/opensource/component_code/vendor/huawei/extra/build/build_script/kirin_kernel_release/kernel/include/linux/osq_lock.h"
	.file	22 "/mnt/disk/jenkins/ci/workspace/chipset_pipeline_release/opensource/component_code/vendor/huawei/extra/build/build_script/kirin_kernel_release/kernel/arch/arm64/include/asm/thread_info.h"
	.file	23 "/mnt/disk/jenkins/ci/workspace/chipset_pipeline_release/opensource/component_code/vendor/huawei/extra/build/build_script/kirin_kernel_release/kernel/include/linux/sched.h"
	.file	24 "/mnt/disk/jenkins/ci/workspace/chipset_pipeline_release/opensource/component_code/vendor/huawei/extra/build/build_script/kirin_kernel_release/kernel/include/linux/cpumask.h"
	.file	25 "/mnt/disk/jenkins/ci/workspace/chipset_pipeline_release/opensource/component_code/vendor/huawei/extra/build/build_script/kirin_kernel_release/kernel/include/linux/timerqueue.h"
	.file	26 "/mnt/disk/jenkins/ci/workspace/chipset_pipeline_release/opensource/component_code/vendor/huawei/extra/build/build_script/kirin_kernel_release/kernel/include/linux/ktime.h"
	.file	27 "/mnt/disk/jenkins/ci/workspace/chipset_pipeline_release/opensource/component_code/vendor/huawei/extra/build/build_script/kirin_kernel_release/kernel/include/linux/hrtimer.h"
	.file	28 "/mnt/disk/jenkins/ci/workspace/chipset_pipeline_release/opensource/component_code/vendor/huawei/extra/build/build_script/kirin_kernel_release/kernel/include/linux/seqlock.h"
	.file	29 "/mnt/disk/jenkins/ci/workspace/chipset_pipeline_release/opensource/component_code/vendor/huawei/extra/build/build_script/kirin_kernel_release/kernel/include/linux/plist.h"
	.file	30 "/mnt/disk/jenkins/ci/workspace/chipset_pipeline_release/opensource/component_code/vendor/huawei/extra/build/build_script/kirin_kernel_release/kernel/include/linux/mm_types.h"
	.file	31 "/mnt/disk/jenkins/ci/workspace/chipset_pipeline_release/opensource/component_code/vendor/huawei/extra/build/build_script/kirin_kernel_release/kernel/arch/arm64/include/asm/pgtable-types.h"
	.file	32 "/mnt/disk/jenkins/ci/workspace/chipset_pipeline_release/opensource/component_code/vendor/huawei/extra/build/build_script/kirin_kernel_release/kernel/include/linux/mm.h"
	.file	33 "/mnt/disk/jenkins/ci/workspace/chipset_pipeline_release/opensource/component_code/vendor/huawei/extra/build/build_script/kirin_kernel_release/kernel/include/asm-generic/pgtable-nop4d-hack.h"
	.file	34 "/mnt/disk/jenkins/ci/workspace/chipset_pipeline_release/opensource/component_code/vendor/huawei/extra/build/build_script/kirin_kernel_release/kernel/include/linux/fs.h"
	.file	35 "/mnt/disk/jenkins/ci/workspace/chipset_pipeline_release/opensource/component_code/vendor/huawei/extra/build/build_script/kirin_kernel_release/kernel/include/linux/uidgid.h"
	.file	36 "/mnt/disk/jenkins/ci/workspace/chipset_pipeline_release/opensource/component_code/vendor/huawei/extra/build/build_script/kirin_kernel_release/kernel/include/linux/dcache.h"
	.file	37 "/mnt/disk/jenkins/ci/workspace/chipset_pipeline_release/opensource/component_code/vendor/huawei/extra/build/build_script/kirin_kernel_release/kernel/include/linux/list_bl.h"
	.file	38 "/mnt/disk/jenkins/ci/workspace/chipset_pipeline_release/opensource/component_code/vendor/huawei/extra/build/build_script/kirin_kernel_release/kernel/include/linux/lockref.h"
	.file	39 "/mnt/disk/jenkins/ci/workspace/chipset_pipeline_release/opensource/component_code/vendor/huawei/extra/build/build_script/kirin_kernel_release/kernel/include/linux/path.h"
	.file	40 "/mnt/disk/jenkins/ci/workspace/chipset_pipeline_release/opensource/component_code/vendor/huawei/extra/build/build_script/kirin_kernel_release/kernel/include/uapi/asm-generic/int-ll64.h"
	.file	41 "/mnt/disk/jenkins/ci/workspace/chipset_pipeline_release/opensource/component_code/vendor/huawei/extra/build/build_script/kirin_kernel_release/kernel/include/linux/module.h"
	.file	42 "/mnt/disk/jenkins/ci/workspace/chipset_pipeline_release/opensource/component_code/vendor/huawei/extra/build/build_script/kirin_kernel_release/kernel/include/linux/completion.h"
	.file	43 "/mnt/disk/jenkins/ci/workspace/chipset_pipeline_release/opensource/component_code/vendor/huawei/extra/build/build_script/kirin_kernel_release/kernel/include/linux/wait.h"
	.file	44 "/mnt/disk/jenkins/ci/workspace/chipset_pipeline_release/opensource/component_code/vendor/huawei/extra/build/build_script/kirin_kernel_release/kernel/include/linux/export.h"
	.file	45 "/mnt/disk/jenkins/ci/workspace/chipset_pipeline_release/opensource/component_code/vendor/huawei/extra/build/build_script/kirin_kernel_release/kernel/include/linux/cfi.h"
	.file	46 "/mnt/disk/jenkins/ci/workspace/chipset_pipeline_release/opensource/component_code/vendor/huawei/extra/build/build_script/kirin_kernel_release/kernel/include/linux/moduleparam.h"
	.file	47 "/mnt/disk/jenkins/ci/workspace/chipset_pipeline_release/opensource/component_code/vendor/huawei/extra/build/build_script/kirin_kernel_release/kernel/arch/arm64/include/asm/extable.h"
	.file	48 "/mnt/disk/jenkins/ci/workspace/chipset_pipeline_release/opensource/component_code/vendor/huawei/extra/build/build_script/kirin_kernel_release/kernel/include/linux/rbtree_latch.h"
	.file	49 "/mnt/disk/jenkins/ci/workspace/chipset_pipeline_release/opensource/component_code/vendor/huawei/extra/build/build_script/kirin_kernel_release/kernel/include/uapi/linux/elf.h"
	.file	50 "/mnt/disk/jenkins/ci/workspace/chipset_pipeline_release/opensource/component_code/vendor/huawei/extra/build/build_script/kirin_kernel_release/kernel/arch/arm64/include/asm/module.h"
	.file	51 "/mnt/disk/jenkins/ci/workspace/chipset_pipeline_release/opensource/component_code/vendor/huawei/extra/build/build_script/kirin_kernel_release/kernel/include/uapi/linux/types.h"
	.file	52 "/mnt/disk/jenkins/ci/workspace/chipset_pipeline_release/opensource/component_code/vendor/huawei/extra/build/build_script/kirin_kernel_release/kernel/include/asm-generic/bug.h"
	.file	53 "/mnt/disk/jenkins/ci/workspace/chipset_pipeline_release/opensource/component_code/vendor/huawei/extra/build/build_script/kirin_kernel_release/kernel/include/linux/tracepoint-defs.h"
	.file	54 "/mnt/disk/jenkins/ci/workspace/chipset_pipeline_release/opensource/component_code/vendor/huawei/extra/build/build_script/kirin_kernel_release/kernel/include/linux/jump_label.h"
	.file	55 "/mnt/disk/jenkins/ci/workspace/chipset_pipeline_release/opensource/component_code/vendor/huawei/extra/build/build_script/kirin_kernel_release/kernel/include/linux/tracepoint.h"
	.file	56 "/mnt/disk/jenkins/ci/workspace/chipset_pipeline_release/opensource/component_code/vendor/huawei/extra/build/build_script/kirin_kernel_release/kernel/include/linux/lockdep.h"
	.file	57 "/mnt/disk/jenkins/ci/workspace/chipset_pipeline_release/opensource/component_code/vendor/huawei/extra/build/build_script/kirin_kernel_release/kernel/include/linux/writeback.h"
	.file	58 "/mnt/disk/jenkins/ci/workspace/chipset_pipeline_release/opensource/component_code/vendor/huawei/extra/build/build_script/kirin_kernel_release/kernel/include/linux/backing-dev-defs.h"
	.file	59 "/mnt/disk/jenkins/ci/workspace/chipset_pipeline_release/opensource/component_code/vendor/huawei/extra/build/build_script/kirin_kernel_release/kernel/include/linux/refcount.h"
	.file	60 "/mnt/disk/jenkins/ci/workspace/chipset_pipeline_release/opensource/component_code/vendor/huawei/extra/build/build_script/kirin_kernel_release/kernel/include/linux/kref.h"
	.file	61 "/mnt/disk/jenkins/ci/workspace/chipset_pipeline_release/opensource/component_code/vendor/huawei/extra/build/build_script/kirin_kernel_release/kernel/include/linux/rwsem.h"
	.file	62 "/mnt/disk/jenkins/ci/workspace/chipset_pipeline_release/opensource/component_code/vendor/huawei/extra/build/build_script/kirin_kernel_release/kernel/include/linux/device.h"
	.file	63 "/mnt/disk/jenkins/ci/workspace/chipset_pipeline_release/opensource/component_code/vendor/huawei/extra/build/build_script/kirin_kernel_release/kernel/include/linux/uio.h"
	.file	64 "/mnt/disk/jenkins/ci/workspace/chipset_pipeline_release/opensource/component_code/vendor/huawei/extra/build/build_script/kirin_kernel_release/kernel/include/uapi/linux/uio.h"
	.file	65 "/mnt/disk/jenkins/ci/workspace/chipset_pipeline_release/opensource/component_code/vendor/huawei/extra/build/build_script/kirin_kernel_release/kernel/include/linux/bvec.h"
	.file	66 "/mnt/disk/jenkins/ci/workspace/chipset_pipeline_release/opensource/component_code/vendor/huawei/extra/build/build_script/kirin_kernel_release/kernel/include/linux/poll.h"
	.file	67 "/mnt/disk/jenkins/ci/workspace/chipset_pipeline_release/opensource/component_code/vendor/huawei/extra/build/build_script/kirin_kernel_release/kernel/include/linux/nfs_fs_i.h"
	.file	68 "/mnt/disk/jenkins/ci/workspace/chipset_pipeline_release/opensource/component_code/vendor/huawei/extra/build/build_script/kirin_kernel_release/kernel/include/linux/rwlock_types.h"
	.file	69 "/mnt/disk/jenkins/ci/workspace/chipset_pipeline_release/opensource/component_code/vendor/huawei/extra/build/build_script/kirin_kernel_release/kernel/include/linux/pid.h"
	.file	70 "/mnt/disk/jenkins/ci/workspace/chipset_pipeline_release/opensource/component_code/vendor/huawei/extra/build/build_script/kirin_kernel_release/kernel/include/linux/cred.h"
	.file	71 "/mnt/disk/jenkins/ci/workspace/chipset_pipeline_release/opensource/component_code/vendor/huawei/extra/build/build_script/kirin_kernel_release/kernel/include/linux/capability.h"
	.file	72 "/mnt/disk/jenkins/ci/workspace/chipset_pipeline_release/opensource/component_code/vendor/huawei/extra/build/build_script/kirin_kernel_release/kernel/include/linux/key.h"
	.file	73 "/mnt/disk/jenkins/ci/workspace/chipset_pipeline_release/opensource/component_code/vendor/huawei/extra/build/build_script/kirin_kernel_release/kernel/include/linux/assoc_array.h"
	.file	74 "/mnt/disk/jenkins/ci/workspace/chipset_pipeline_release/opensource/component_code/vendor/huawei/extra/build/build_script/kirin_kernel_release/kernel/include/linux/sched/user.h"
	.file	75 "/mnt/disk/jenkins/ci/workspace/chipset_pipeline_release/opensource/component_code/vendor/huawei/extra/build/build_script/kirin_kernel_release/kernel/include/linux/user_namespace.h"
	.file	76 "/mnt/disk/jenkins/ci/workspace/chipset_pipeline_release/opensource/component_code/vendor/huawei/extra/build/build_script/kirin_kernel_release/kernel/include/linux/ns_common.h"
	.file	77 "/mnt/disk/jenkins/ci/workspace/chipset_pipeline_release/opensource/component_code/vendor/huawei/extra/build/build_script/kirin_kernel_release/kernel/include/linux/workqueue.h"
	.file	78 "/mnt/disk/jenkins/ci/workspace/chipset_pipeline_release/opensource/component_code/vendor/huawei/extra/build/build_script/kirin_kernel_release/kernel/include/linux/sysctl.h"
	.file	79 "/mnt/disk/jenkins/ci/workspace/chipset_pipeline_release/opensource/component_code/vendor/huawei/extra/build/build_script/kirin_kernel_release/kernel/include/linux/errseq.h"
	.file	80 "/mnt/disk/jenkins/ci/workspace/chipset_pipeline_release/opensource/component_code/vendor/huawei/extra/build/build_script/kirin_kernel_release/kernel/include/linux/pm.h"
	.file	81 "/mnt/disk/jenkins/ci/workspace/chipset_pipeline_release/opensource/component_code/vendor/huawei/extra/build/build_script/kirin_kernel_release/kernel/include/linux/pm_wakeup.h"
	.file	82 "/mnt/disk/jenkins/ci/workspace/chipset_pipeline_release/opensource/component_code/vendor/huawei/extra/build/build_script/kirin_kernel_release/kernel/include/linux/timer.h"
	.file	83 "/mnt/disk/jenkins/ci/workspace/chipset_pipeline_release/opensource/component_code/vendor/huawei/extra/build/build_script/kirin_kernel_release/kernel/include/linux/pinctrl/devinfo.h"
	.file	84 "/mnt/disk/jenkins/ci/workspace/chipset_pipeline_release/opensource/component_code/vendor/huawei/extra/build/build_script/kirin_kernel_release/kernel/arch/arm64/include/asm/device.h"
	.file	85 "/mnt/disk/jenkins/ci/workspace/chipset_pipeline_release/opensource/component_code/vendor/huawei/extra/build/build_script/kirin_kernel_release/kernel/include/linux/klist.h"
	.file	86 "/mnt/disk/jenkins/ci/workspace/chipset_pipeline_release/opensource/component_code/vendor/huawei/extra/build/build_script/kirin_kernel_release/kernel/include/linux/percpu_counter.h"
	.file	87 "/mnt/disk/jenkins/ci/workspace/chipset_pipeline_release/opensource/component_code/vendor/huawei/extra/build/build_script/kirin_kernel_release/kernel/include/linux/flex_proportions.h"
	.file	88 "/mnt/disk/jenkins/ci/workspace/chipset_pipeline_release/opensource/component_code/vendor/huawei/extra/build/build_script/kirin_kernel_release/kernel/include/linux/percpu-refcount.h"
	.file	89 "/mnt/disk/jenkins/ci/workspace/chipset_pipeline_release/opensource/component_code/vendor/huawei/extra/build/build_script/kirin_kernel_release/kernel/include/linux/cgroup-defs.h"
	.file	90 "/mnt/disk/jenkins/ci/workspace/chipset_pipeline_release/opensource/component_code/vendor/huawei/extra/build/build_script/kirin_kernel_release/kernel/include/linux/psi_types.h"
	.file	91 "/mnt/disk/jenkins/ci/workspace/chipset_pipeline_release/opensource/component_code/vendor/huawei/extra/build/build_script/kirin_kernel_release/kernel/include/linux/bpf-cgroup.h"
	.file	92 "/mnt/disk/jenkins/ci/workspace/chipset_pipeline_release/opensource/component_code/vendor/huawei/extra/build/build_script/kirin_kernel_release/kernel/include/linux/quota.h"
	.file	93 "/mnt/disk/jenkins/ci/workspace/chipset_pipeline_release/opensource/component_code/vendor/huawei/extra/build/build_script/kirin_kernel_release/kernel/include/linux/projid.h"
	.file	94 "/mnt/disk/jenkins/ci/workspace/chipset_pipeline_release/opensource/component_code/vendor/huawei/extra/build/build_script/kirin_kernel_release/kernel/include/linux/time64.h"
	.file	95 "/mnt/disk/jenkins/ci/workspace/chipset_pipeline_release/opensource/component_code/vendor/huawei/extra/build/build_script/kirin_kernel_release/kernel/include/linux/shrinker.h"
	.file	96 "/mnt/disk/jenkins/ci/workspace/chipset_pipeline_release/opensource/component_code/vendor/huawei/extra/build/build_script/kirin_kernel_release/kernel/include/linux/memcontrol.h"
	.file	97 "/mnt/disk/jenkins/ci/workspace/chipset_pipeline_release/opensource/component_code/vendor/huawei/extra/build/build_script/kirin_kernel_release/kernel/include/linux/page_counter.h"
	.file	98 "/mnt/disk/jenkins/ci/workspace/chipset_pipeline_release/opensource/component_code/vendor/huawei/extra/build/build_script/kirin_kernel_release/kernel/include/linux/vmpressure.h"
	.file	99 "/mnt/disk/jenkins/ci/workspace/chipset_pipeline_release/opensource/component_code/vendor/huawei/extra/build/build_script/kirin_kernel_release/kernel/include/linux/mmzone.h"
	.file	100 "/mnt/disk/jenkins/ci/workspace/chipset_pipeline_release/opensource/component_code/vendor/huawei/extra/build/build_script/kirin_kernel_release/kernel/include/linux/genhd.h"
	.file	101 "/mnt/disk/jenkins/ci/workspace/chipset_pipeline_release/opensource/component_code/vendor/huawei/extra/build/build_script/kirin_kernel_release/kernel/include/linux/rcu_sync.h"
	.file	102 "/mnt/disk/jenkins/ci/workspace/chipset_pipeline_release/opensource/component_code/vendor/huawei/extra/build/build_script/kirin_kernel_release/kernel/include/linux/percpu-rwsem.h"
	.file	103 "/mnt/disk/jenkins/ci/workspace/chipset_pipeline_release/opensource/component_code/vendor/huawei/extra/build/build_script/kirin_kernel_release/kernel/include/linux/rcuwait.h"
	.file	104 "/mnt/disk/jenkins/ci/workspace/chipset_pipeline_release/opensource/component_code/vendor/huawei/extra/build/build_script/kirin_kernel_release/kernel/include/linux/uuid.h"
	.file	105 "/mnt/disk/jenkins/ci/workspace/chipset_pipeline_release/opensource/component_code/vendor/huawei/extra/build/build_script/kirin_kernel_release/kernel/include/linux/list_lru.h"
	.file	106 "/mnt/disk/jenkins/ci/workspace/chipset_pipeline_release/opensource/component_code/vendor/huawei/extra/build/build_script/kirin_kernel_release/kernel/include/linux/delayed_call.h"
	.file	107 "/mnt/disk/jenkins/ci/workspace/chipset_pipeline_release/opensource/component_code/vendor/huawei/extra/build/build_script/kirin_kernel_release/kernel/include/uapi/linux/time.h"
	.file	108 "/mnt/disk/jenkins/ci/workspace/chipset_pipeline_release/opensource/component_code/vendor/huawei/extra/build/build_script/kirin_kernel_release/kernel/include/linux/stat.h"
	.file	109 "/mnt/disk/jenkins/ci/workspace/chipset_pipeline_release/opensource/component_code/vendor/huawei/extra/build/build_script/kirin_kernel_release/kernel/include/uapi/linux/fiemap.h"
	.file	110 "/mnt/disk/jenkins/ci/workspace/chipset_pipeline_release/opensource/component_code/vendor/huawei/extra/build/build_script/kirin_kernel_release/kernel/include/linux/migrate_mode.h"
	.file	111 "/mnt/disk/jenkins/ci/workspace/chipset_pipeline_release/opensource/component_code/vendor/huawei/extra/build/build_script/kirin_kernel_release/kernel/include/linux/swap.h"
	.file	112 "/mnt/disk/jenkins/ci/workspace/chipset_pipeline_release/opensource/component_code/vendor/huawei/extra/build/build_script/kirin_kernel_release/kernel/include/linux/memremap.h"
	.file	113 "/mnt/disk/jenkins/ci/workspace/chipset_pipeline_release/opensource/component_code/vendor/huawei/extra/build/build_script/kirin_kernel_release/kernel/include/linux/ioport.h"
	.file	114 "/mnt/disk/jenkins/ci/workspace/chipset_pipeline_release/opensource/component_code/vendor/huawei/extra/build/build_script/kirin_kernel_release/kernel/arch/arm64/include/asm/page.h"
	.file	115 "/mnt/disk/jenkins/ci/workspace/chipset_pipeline_release/opensource/component_code/vendor/huawei/extra/build/build_script/kirin_kernel_release/kernel/include/linux/mm_types_task.h"
	.file	116 "/mnt/disk/jenkins/ci/workspace/chipset_pipeline_release/opensource/component_code/vendor/huawei/extra/build/build_script/kirin_kernel_release/kernel/arch/arm64/include/asm/mmu.h"
	.file	117 "/mnt/disk/jenkins/ci/workspace/chipset_pipeline_release/opensource/component_code/vendor/huawei/extra/build/build_script/kirin_kernel_release/kernel/include/linux/uprobes.h"
	.file	118 "/mnt/disk/jenkins/ci/workspace/chipset_pipeline_release/opensource/component_code/vendor/huawei/extra/build/build_script/kirin_kernel_release/kernel/include/linux/xreclaimer_types.h"
	.file	119 "/mnt/disk/jenkins/ci/workspace/chipset_pipeline_release/opensource/component_code/vendor/huawei/extra/build/build_script/kirin_kernel_release/kernel/include/linux/restart_block.h"
	.file	120 "/mnt/disk/jenkins/ci/workspace/chipset_pipeline_release/opensource/component_code/vendor/huawei/extra/build/build_script/kirin_kernel_release/kernel/arch/arm64/include/asm/compat.h"
	.file	121 "/mnt/disk/jenkins/ci/workspace/chipset_pipeline_release/opensource/component_code/vendor/huawei/extra/build/build_script/kirin_kernel_release/kernel/include/uapi/asm-generic/poll.h"
	.file	122 "/mnt/disk/jenkins/ci/workspace/chipset_pipeline_release/opensource/component_code/vendor/huawei/extra/build/build_script/kirin_kernel_release/kernel/include/linux/nsproxy.h"
	.file	123 "/mnt/disk/jenkins/ci/workspace/chipset_pipeline_release/opensource/component_code/vendor/huawei/extra/build/build_script/kirin_kernel_release/kernel/include/linux/cgroup.h"
	.file	124 "/mnt/disk/jenkins/ci/workspace/chipset_pipeline_release/opensource/component_code/vendor/huawei/extra/build/build_script/kirin_kernel_release/kernel/include/uapi/asm-generic/signal.h"
	.file	125 "/mnt/disk/jenkins/ci/workspace/chipset_pipeline_release/opensource/component_code/vendor/huawei/extra/build/build_script/kirin_kernel_release/kernel/include/linux/signal_types.h"
	.file	126 "/mnt/disk/jenkins/ci/workspace/chipset_pipeline_release/opensource/component_code/vendor/huawei/extra/build/build_script/kirin_kernel_release/kernel/include/linux/seccomp.h"
	.file	127 "/mnt/disk/jenkins/ci/workspace/chipset_pipeline_release/opensource/component_code/vendor/huawei/extra/build/build_script/kirin_kernel_release/kernel/include/linux/blk_types.h"
	.file	128 "/mnt/disk/jenkins/ci/workspace/chipset_pipeline_release/opensource/component_code/vendor/huawei/extra/build/build_script/kirin_kernel_release/kernel/include/linux/iocontext.h"
	.file	129 "/mnt/disk/jenkins/ci/workspace/chipset_pipeline_release/opensource/component_code/vendor/huawei/extra/build/build_script/kirin_kernel_release/kernel/include/linux/bio.h"
	.file	130 "/mnt/disk/jenkins/ci/workspace/chipset_pipeline_release/opensource/component_code/vendor/huawei/extra/build/build_script/kirin_kernel_release/kernel/include/linux/mempool.h"
	.file	131 "/mnt/disk/jenkins/ci/workspace/chipset_pipeline_release/opensource/component_code/vendor/huawei/extra/build/build_script/kirin_kernel_release/kernel/include/uapi/asm-generic/siginfo.h"
	.file	132 "/mnt/disk/jenkins/ci/workspace/chipset_pipeline_release/opensource/component_code/vendor/huawei/extra/build/build_script/kirin_kernel_release/kernel/include/linux/task_io_accounting.h"
	.file	133 "/mnt/disk/jenkins/ci/workspace/chipset_pipeline_release/opensource/component_code/vendor/huawei/extra/build/build_script/kirin_kernel_release/kernel/include/linux/nodemask.h"
	.file	134 "/mnt/disk/jenkins/ci/workspace/chipset_pipeline_release/opensource/component_code/vendor/huawei/extra/build/build_script/kirin_kernel_release/kernel/include/linux/compat.h"
	.file	135 "/mnt/disk/jenkins/ci/workspace/chipset_pipeline_release/opensource/component_code/vendor/huawei/extra/build/build_script/kirin_kernel_release/kernel/arch/arm64/include/asm/processor.h"
	.file	136 "/mnt/disk/jenkins/ci/workspace/chipset_pipeline_release/opensource/component_code/vendor/huawei/extra/build/build_script/kirin_kernel_release/kernel/arch/arm64/include/uapi/asm/ptrace.h"
	.file	137 "/mnt/disk/jenkins/ci/workspace/chipset_pipeline_release/opensource/component_code/vendor/huawei/extra/build/build_script/kirin_kernel_release/kernel/arch/arm64/include/asm/fpsimd.h"
	.file	138 "/mnt/disk/jenkins/ci/workspace/chipset_pipeline_release/opensource/component_code/vendor/huawei/extra/build/build_script/kirin_kernel_release/kernel/include/linux/elevator.h"
	.file	139 "/mnt/disk/jenkins/ci/workspace/chipset_pipeline_release/opensource/component_code/vendor/huawei/extra/build/build_script/kirin_kernel_release/kernel/include/linux/blk-mq.h"
	.file	140 "/mnt/disk/jenkins/ci/workspace/chipset_pipeline_release/opensource/component_code/vendor/huawei/extra/build/build_script/kirin_kernel_release/kernel/block/blk.h"
	.file	141 "/mnt/disk/jenkins/ci/workspace/chipset_pipeline_release/opensource/component_code/vendor/huawei/extra/build/build_script/kirin_kernel_release/kernel/include/linux/sbitmap.h"
	.file	142 "/mnt/disk/jenkins/ci/workspace/chipset_pipeline_release/opensource/component_code/vendor/huawei/extra/build/build_script/kirin_kernel_release/kernel/block/blk-mq-tag.h"
	.file	143 "/mnt/disk/jenkins/ci/workspace/chipset_pipeline_release/opensource/component_code/vendor/huawei/extra/build/build_script/kirin_kernel_release/kernel/block/mas_blk.h"
	.file	144 "/mnt/disk/jenkins/ci/workspace/chipset_pipeline_release/opensource/component_code/vendor/huawei/extra/build/build_script/kirin_kernel_release/kernel/include/linux/srcutree.h"
	.file	145 "/mnt/disk/jenkins/ci/workspace/chipset_pipeline_release/opensource/component_code/vendor/huawei/extra/build/build_script/kirin_kernel_release/kernel/include/linux/rcu_segcblist.h"
	.file	146 "/mnt/disk/jenkins/ci/workspace/chipset_pipeline_release/opensource/component_code/vendor/huawei/extra/build/build_script/kirin_kernel_release/kernel/block/blk-wbt.h"
	.file	147 "/mnt/disk/jenkins/ci/workspace/chipset_pipeline_release/opensource/component_code/vendor/huawei/extra/build/build_script/kirin_kernel_release/kernel/block/blk-stat.h"
	.file	148 "/mnt/disk/jenkins/ci/workspace/chipset_pipeline_release/opensource/component_code/vendor/huawei/extra/build/build_script/kirin_kernel_release/kernel/include/linux/bsg.h"
	.file	149 "/mnt/disk/jenkins/ci/workspace/chipset_pipeline_release/opensource/component_code/vendor/huawei/extra/build/build_script/kirin_kernel_release/kernel/include/linux/notifier.h"
	.file	150 "/mnt/disk/jenkins/ci/workspace/chipset_pipeline_release/opensource/component_code/vendor/huawei/extra/build/build_script/kirin_kernel_release/kernel/include/linux/stddef.h"
	.file	151 "/mnt/disk/jenkins/ci/workspace/chipset_pipeline_release/opensource/component_code/vendor/huawei/extra/build/build_script/kirin_kernel_release/kernel/include/linux/interrupt.h"
	.file	152 "/mnt/disk/jenkins/ci/workspace/chipset_pipeline_release/opensource/component_code/vendor/huawei/extra/build/build_script/kirin_kernel_release/kernel/include/linux/slab.h"
	.section	.text.ufs_mq_inc_vip_wait_cnt,"ax",@progbits
	.hidden	ufs_mq_inc_vip_wait_cnt // -- Begin function ufs_mq_inc_vip_wait_cnt
	.globl	ufs_mq_inc_vip_wait_cnt
	.p2align	2
	.type	ufs_mq_inc_vip_wait_cnt,@function
ufs_mq_inc_vip_wait_cnt:                // @ufs_mq_inc_vip_wait_cnt
.Lfunc_begin0:
	.loc	1 266 0                 // kernel/block/mas_blk_iosched_ufs_mq.c:266:0
	.cfi_sections .debug_frame
	.cfi_startproc
// %bb.0:
	//DEBUG_VALUE: ufs_mq_inc_vip_wait_cnt:data <- $x0
	//DEBUG_VALUE: ufs_mq_inc_vip_wait_cnt:data <- $x0
	.loc	1 267 63 prologue_end   // kernel/block/mas_blk_iosched_ufs_mq.c:267:63
	ldr	x8, [x0]
.Ltmp0:
	//DEBUG_VALUE: get_sched_ds_lld:q <- $x8
	.loc	1 259 33                // kernel/block/mas_blk_iosched_ufs_mq.c:259:33
	ldr	x8, [x8, #1800]
.Ltmp1:
	//DEBUG_VALUE: get_sched_ds_lld:queuedata <- $x8
	.loc	1 261 9                 // kernel/block/mas_blk_iosched_ufs_mq.c:261:9
	cbz	x8, .LBB0_3
.Ltmp2:
// %bb.1:
	//DEBUG_VALUE: get_sched_ds_lld:queuedata <- $x8
	//DEBUG_VALUE: ufs_mq_inc_vip_wait_cnt:data <- $x0
	.loc	1 261 61 is_stmt 0      // kernel/block/mas_blk_iosched_ufs_mq.c:261:61
	ldr	x8, [x8, #280]
.Ltmp3:
	//DEBUG_VALUE: ufs_mq_inc_vip_wait_cnt:ds_lld <- $x8
	//DEBUG_VALUE: atomic_add:v <- [DW_OP_plus_uconst 28, DW_OP_stack_value] $x8
	.loc	1 268 5 is_stmt 1       // kernel/block/mas_blk_iosched_ufs_mq.c:268:5
	cbz	x8, .LBB0_3
.Ltmp4:
// %bb.2:
	//DEBUG_VALUE: atomic_add:v <- [DW_OP_plus_uconst 28, DW_OP_stack_value] $x8
	//DEBUG_VALUE: ufs_mq_inc_vip_wait_cnt:ds_lld <- $x8
	//DEBUG_VALUE: ufs_mq_inc_vip_wait_cnt:data <- $x0
	//DEBUG_VALUE: atomic_add:i <- 1
	.file	153 "/mnt/disk/jenkins/ci/workspace/chipset_pipeline_release/opensource/component_code/vendor/huawei/extra/build/build_script/kirin_kernel_release/kernel/arch/arm64/include/asm/atomic_ll_sc.h"
	.loc	153 113 1               // kernel/arch/arm64/include/asm/atomic_ll_sc.h:113:1
	add	x8, x8, #28             // =28
.Ltmp5:
	//APP
	// atomic_add
	prfm	pstl1strm, [x8]
1:	ldxr	w9, [x8]
	add	w9, w9, #1
	stxr	w10, w9, [x8]
	cbnz	w10, 1b
	//NO_APP
.Ltmp6:
	//DEBUG_VALUE: atomic_add:tmp <- undef
	//DEBUG_VALUE: atomic_add:result <- undef
.LBB0_3:
	//DEBUG_VALUE: ufs_mq_inc_vip_wait_cnt:data <- $x0
	.loc	1 272 1                 // kernel/block/mas_blk_iosched_ufs_mq.c:272:1
	ret
.Ltmp7:
.Lfunc_end0:
	.size	ufs_mq_inc_vip_wait_cnt, .Lfunc_end0-ufs_mq_inc_vip_wait_cnt
	.cfi_endproc
                                        // -- End function
	.section	.text.ufs_mq_dec_vip_wait_cnt,"ax",@progbits
	.hidden	ufs_mq_dec_vip_wait_cnt // -- Begin function ufs_mq_dec_vip_wait_cnt
	.globl	ufs_mq_dec_vip_wait_cnt
	.p2align	2
	.type	ufs_mq_dec_vip_wait_cnt,@function
ufs_mq_dec_vip_wait_cnt:                // @ufs_mq_dec_vip_wait_cnt
.Lfunc_begin1:
	.loc	1 275 0                 // kernel/block/mas_blk_iosched_ufs_mq.c:275:0
	.cfi_startproc
// %bb.0:
	//DEBUG_VALUE: ufs_mq_dec_vip_wait_cnt:data <- $x0
	//DEBUG_VALUE: ufs_mq_dec_vip_wait_cnt:data <- $x0
	.loc	1 276 63 prologue_end   // kernel/block/mas_blk_iosched_ufs_mq.c:276:63
	ldr	x8, [x0]
.Ltmp8:
	//DEBUG_VALUE: get_sched_ds_lld:q <- $x8
	.loc	1 259 33                // kernel/block/mas_blk_iosched_ufs_mq.c:259:33
	ldr	x8, [x8, #1800]
.Ltmp9:
	//DEBUG_VALUE: get_sched_ds_lld:queuedata <- $x8
	.loc	1 261 9                 // kernel/block/mas_blk_iosched_ufs_mq.c:261:9
	cbz	x8, .LBB1_2
.Ltmp10:
// %bb.1:
	//DEBUG_VALUE: get_sched_ds_lld:queuedata <- $x8
	//DEBUG_VALUE: ufs_mq_dec_vip_wait_cnt:data <- $x0
	.loc	1 261 61 is_stmt 0      // kernel/block/mas_blk_iosched_ufs_mq.c:261:61
	ldr	x8, [x8, #280]
.Ltmp11:
.LBB1_2:
	//DEBUG_VALUE: ufs_mq_dec_vip_wait_cnt:data <- $x0
	//DEBUG_VALUE: ufs_mq_dec_vip_wait_cnt:ds_lld <- $x8
	//DEBUG_VALUE: __cmpxchg_case_mb_4:ptr <- [DW_OP_plus_uconst 28, DW_OP_stack_value] $x8
	//DEBUG_VALUE: __cmpxchg_mb:ptr <- [DW_OP_plus_uconst 28, DW_OP_stack_value] $x8
	//DEBUG_VALUE: atomic_dec_if_positive:v <- [DW_OP_plus_uconst 28, DW_OP_stack_value] $x8
	//DEBUG_VALUE: __read_once_size:p <- [DW_OP_plus_uconst 28, DW_OP_stack_value] $x8
	//DEBUG_VALUE: __read_once_size:res <- undef
	//DEBUG_VALUE: __read_once_size:size <- 4
	.file	154 "/mnt/disk/jenkins/ci/workspace/chipset_pipeline_release/opensource/component_code/vendor/huawei/extra/build/build_script/kirin_kernel_release/kernel/include/linux/compiler.h"
	.loc	154 183 2 is_stmt 1     // kernel/include/linux/compiler.h:183:2
	ldr	w9, [x8, #28]
.Ltmp12:
	//DEBUG_VALUE: atomic_dec_if_positive:c <- $w9
.LBB1_3:                                // =>This Inner Loop Header: Depth=1
	//DEBUG_VALUE: atomic_dec_if_positive:c <- $w9
	//DEBUG_VALUE: atomic_dec_if_positive:v <- [DW_OP_plus_uconst 28, DW_OP_stack_value] $x8
	//DEBUG_VALUE: ufs_mq_dec_vip_wait_cnt:ds_lld <- $x8
	//DEBUG_VALUE: ufs_mq_dec_vip_wait_cnt:data <- $x0
	//DEBUG_VALUE: atomic_dec_if_positive:c <- $w9
	.file	155 "/mnt/disk/jenkins/ci/workspace/chipset_pipeline_release/opensource/component_code/vendor/huawei/extra/build/build_script/kirin_kernel_release/kernel/include/linux/atomic.h"
	.loc	155 645 11              // kernel/include/linux/atomic.h:645:11
	subs	w10, w9, #1             // =1
.Ltmp13:
	//DEBUG_VALUE: atomic_dec_if_positive:dec <- $w10
	.loc	155 646 7               // kernel/include/linux/atomic.h:646:7
	b.mi	.LBB1_5
.Ltmp14:
// %bb.4:                               //   in Loop: Header=BB1_3 Depth=1
	//DEBUG_VALUE: atomic_dec_if_positive:dec <- $w10
	//DEBUG_VALUE: atomic_dec_if_positive:c <- $w9
	//DEBUG_VALUE: atomic_dec_if_positive:v <- [DW_OP_plus_uconst 28, DW_OP_stack_value] $x8
	//DEBUG_VALUE: ufs_mq_dec_vip_wait_cnt:ds_lld <- $x8
	//DEBUG_VALUE: ufs_mq_dec_vip_wait_cnt:data <- $x0
	.loc	155 648 9               // kernel/include/linux/atomic.h:648:9
	sxtw	x11, w9
	sxtw	x10, w10
.Ltmp15:
	//DEBUG_VALUE: __cmpxchg_mb:size <- 4
	//DEBUG_VALUE: __cmpxchg_case_mb_4:new <- $x10
	//DEBUG_VALUE: __cmpxchg_mb:new <- $x10
	//DEBUG_VALUE: __cmpxchg_mb:old <- $x11
	//DEBUG_VALUE: __cmpxchg_case_mb_4:old <- $x11
	.loc	153 291 1               // kernel/arch/arm64/include/asm/atomic_ll_sc.h:291:1
	add	x12, x8, #28            // =28
	//APP
		prfm	pstl1strm, [x12]
1:	ldxr	w14, [x12]
	eor	w13, w14, w11
	cbnz	w13, 2f
	stlxr	w13, w10, [x12]
	cbnz	w13, 1b
	dmb ish
2:
	//NO_APP
.Ltmp16:
	//DEBUG_VALUE: atomic_dec_if_positive:old <- $w14
	//DEBUG_VALUE: __ret <- $w14
	//DEBUG_VALUE: __cmpxchg_case_mb_4:tmp <- undef
	//DEBUG_VALUE: __cmpxchg_case_mb_4:oldval <- $x14
	.loc	155 649 7               // kernel/include/linux/atomic.h:649:7
	cmp	w9, w14
.Ltmp17:
	.loc	155 0 0 is_stmt 0       // kernel/include/linux/atomic.h:0:0
	mov	w9, w14
.Ltmp18:
	.loc	155 649 7               // kernel/include/linux/atomic.h:649:7
	b.ne	.LBB1_3
.Ltmp19:
.LBB1_5:
	//DEBUG_VALUE: ufs_mq_dec_vip_wait_cnt:ds_lld <- $x8
	//DEBUG_VALUE: ufs_mq_dec_vip_wait_cnt:data <- $x0
	.loc	1 279 1 is_stmt 1       // kernel/block/mas_blk_iosched_ufs_mq.c:279:1
	ret
.Ltmp20:
.Lfunc_end1:
	.size	ufs_mq_dec_vip_wait_cnt, .Lfunc_end1-ufs_mq_dec_vip_wait_cnt
	.cfi_endproc
	.file	156 "/mnt/disk/jenkins/ci/workspace/chipset_pipeline_release/opensource/component_code/vendor/huawei/extra/build/build_script/kirin_kernel_release/kernel/arch/arm64/include/asm/cmpxchg.h"
                                        // -- End function
	.section	.text.reset_vip_wait_cnt,"ax",@progbits
	.hidden	reset_vip_wait_cnt      // -- Begin function reset_vip_wait_cnt
	.globl	reset_vip_wait_cnt
	.p2align	2
	.type	reset_vip_wait_cnt,@function
reset_vip_wait_cnt:                     // @reset_vip_wait_cnt
.Lfunc_begin2:
	.loc	1 282 0                 // kernel/block/mas_blk_iosched_ufs_mq.c:282:0
	.cfi_startproc
// %bb.0:
	//DEBUG_VALUE: reset_vip_wait_cnt:data <- $x0
	//DEBUG_VALUE: reset_vip_wait_cnt:data <- $x0
	.loc	1 283 63 prologue_end   // kernel/block/mas_blk_iosched_ufs_mq.c:283:63
	ldr	x8, [x0]
.Ltmp21:
	//DEBUG_VALUE: get_sched_ds_lld:q <- $x8
	.loc	1 259 33                // kernel/block/mas_blk_iosched_ufs_mq.c:259:33
	ldr	x8, [x8, #1800]
.Ltmp22:
	//DEBUG_VALUE: get_sched_ds_lld:queuedata <- $x8
	.loc	1 261 9                 // kernel/block/mas_blk_iosched_ufs_mq.c:261:9
	cbz	x8, .LBB2_2
.Ltmp23:
// %bb.1:
	//DEBUG_VALUE: get_sched_ds_lld:queuedata <- $x8
	//DEBUG_VALUE: reset_vip_wait_cnt:data <- $x0
	.loc	1 261 61 is_stmt 0      // kernel/block/mas_blk_iosched_ufs_mq.c:261:61
	ldr	x8, [x8, #280]
.Ltmp24:
.LBB2_2:
	//DEBUG_VALUE: reset_vip_wait_cnt:data <- $x0
	//DEBUG_VALUE: reset_vip_wait_cnt:ds_lld <- $x8
	//DEBUG_VALUE: __read_once_size:p <- [DW_OP_plus_uconst 24, DW_OP_stack_value] $x8
	//DEBUG_VALUE: __read_once_size:res <- undef
	//DEBUG_VALUE: __read_once_size:size <- 4
	.loc	154 183 2 is_stmt 1     // kernel/include/linux/compiler.h:183:2
	ldr	w9, [x8, #24]
.Ltmp25:
	.loc	1 285 6                 // kernel/block/mas_blk_iosched_ufs_mq.c:285:6
	cbz	w9, .LBB2_4
.Ltmp26:
// %bb.3:
	//DEBUG_VALUE: reset_vip_wait_cnt:ds_lld <- $x8
	//DEBUG_VALUE: reset_vip_wait_cnt:data <- $x0
	.loc	1 289 1                 // kernel/block/mas_blk_iosched_ufs_mq.c:289:1
	ret
.Ltmp27:
.LBB2_4:
	//DEBUG_VALUE: reset_vip_wait_cnt:ds_lld <- $x8
	//DEBUG_VALUE: reset_vip_wait_cnt:data <- $x0
	//DEBUG_VALUE: __write_once_size:p <- [DW_OP_plus_uconst 28, DW_OP_stack_value] $x8
	//DEBUG_VALUE: __write_once_size:res <- undef
	//DEBUG_VALUE: __write_once_size:size <- 4
	.loc	154 209 31              // kernel/include/linux/compiler.h:209:31
	str	wzr, [x8, #28]
.Ltmp28:
	.loc	1 289 1                 // kernel/block/mas_blk_iosched_ufs_mq.c:289:1
	ret
.Ltmp29:
.Lfunc_end2:
	.size	reset_vip_wait_cnt, .Lfunc_end2-reset_vip_wait_cnt
	.cfi_endproc
                                        // -- End function
	.section	.text.ufs_mq_vip_tag_wait_cnt,"ax",@progbits
	.hidden	ufs_mq_vip_tag_wait_cnt // -- Begin function ufs_mq_vip_tag_wait_cnt
	.globl	ufs_mq_vip_tag_wait_cnt
	.p2align	2
	.type	ufs_mq_vip_tag_wait_cnt,@function
ufs_mq_vip_tag_wait_cnt:                // @ufs_mq_vip_tag_wait_cnt
.Lfunc_begin3:
	.loc	1 292 0                 // kernel/block/mas_blk_iosched_ufs_mq.c:292:0
	.cfi_startproc
// %bb.0:
	//DEBUG_VALUE: ufs_mq_vip_tag_wait_cnt:data <- $x0
	//DEBUG_VALUE: ufs_mq_vip_tag_wait_cnt:data <- $x0
	.loc	1 293 63 prologue_end   // kernel/block/mas_blk_iosched_ufs_mq.c:293:63
	ldr	x8, [x0]
.Ltmp30:
	//DEBUG_VALUE: get_sched_ds_lld:q <- $x8
	.loc	1 259 33                // kernel/block/mas_blk_iosched_ufs_mq.c:259:33
	ldr	x8, [x8, #1800]
.Ltmp31:
	//DEBUG_VALUE: get_sched_ds_lld:queuedata <- $x8
	.loc	1 261 9                 // kernel/block/mas_blk_iosched_ufs_mq.c:261:9
	cbz	x8, .LBB3_2
.Ltmp32:
// %bb.1:
	//DEBUG_VALUE: get_sched_ds_lld:queuedata <- $x8
	//DEBUG_VALUE: ufs_mq_vip_tag_wait_cnt:data <- $x0
	.loc	1 261 61 is_stmt 0      // kernel/block/mas_blk_iosched_ufs_mq.c:261:61
	ldr	x8, [x8, #280]
.Ltmp33:
.LBB3_2:
	//DEBUG_VALUE: ufs_mq_vip_tag_wait_cnt:data <- $x0
	//DEBUG_VALUE: ufs_mq_vip_tag_wait_cnt:ds_lld <- $x8
	//DEBUG_VALUE: __read_once_size:p <- [DW_OP_plus_uconst 28, DW_OP_stack_value] $x8
	//DEBUG_VALUE: __read_once_size:res <- undef
	//DEBUG_VALUE: __read_once_size:size <- 4
	.loc	154 183 2 is_stmt 1     // kernel/include/linux/compiler.h:183:2
	ldr	w0, [x8, #28]
.Ltmp34:
	.loc	1 295 2                 // kernel/block/mas_blk_iosched_ufs_mq.c:295:2
	ret
.Ltmp35:
.Lfunc_end3:
	.size	ufs_mq_vip_tag_wait_cnt, .Lfunc_end3-ufs_mq_vip_tag_wait_cnt
	.cfi_endproc
                                        // -- End function
	.section	.text.get_mq_all_tag_used,"ax",@progbits
	.hidden	get_mq_all_tag_used     // -- Begin function get_mq_all_tag_used
	.globl	get_mq_all_tag_used
	.p2align	2
	.type	get_mq_all_tag_used,@function
get_mq_all_tag_used:                    // @get_mq_all_tag_used
.Lfunc_begin4:
	.loc	1 387 0                 // kernel/block/mas_blk_iosched_ufs_mq.c:387:0
	.cfi_startproc
// %bb.0:
	//DEBUG_VALUE: get_mq_all_tag_used:q <- $x0
	//DEBUG_VALUE: get_mq_all_tag_used:q <- $x0
	//DEBUG_VALUE: get_mq_all_tag_used:sched_ds_lld <- 0
	//DEBUG_VALUE: get_mq_all_tag_used:lld <- 0
	.loc	1 391 6 prologue_end    // kernel/block/mas_blk_iosched_ufs_mq.c:391:6
	cbz	x0, .LBB4_4
.Ltmp36:
// %bb.1:
	//DEBUG_VALUE: get_mq_all_tag_used:q <- $x0
	stp	x29, x30, [sp, #-16]!   // 16-byte Folded Spill
	mov	x29, sp
	.cfi_def_cfa w29, 16
	.cfi_offset w30, -8
	.cfi_offset w29, -16
	.loc	1 393 8                 // kernel/block/mas_blk_iosched_ufs_mq.c:393:8
	bl	mas_blk_get_lld
.Ltmp37:
	//DEBUG_VALUE: get_mq_all_tag_used:lld <- $x0
	.loc	1 394 6                 // kernel/block/mas_blk_iosched_ufs_mq.c:394:6
	ldp	x29, x30, [sp], #16     // 16-byte Folded Reload
	cbz	x0, .LBB4_4
.Ltmp38:
// %bb.2:
	//DEBUG_VALUE: get_mq_all_tag_used:lld <- $x0
	.loc	1 396 53                // kernel/block/mas_blk_iosched_ufs_mq.c:396:53
	ldr	x8, [x0, #544]
.Ltmp39:
	//DEBUG_VALUE: get_mq_all_tag_used:sched_ds_lld <- $x8
	.loc	1 397 6                 // kernel/block/mas_blk_iosched_ufs_mq.c:397:6
	cbz	x8, .LBB4_5
.Ltmp40:
// %bb.3:
	//DEBUG_VALUE: get_mq_all_tag_used:sched_ds_lld <- $x8
	//DEBUG_VALUE: get_mq_all_tag_used:lld <- $x0
	//DEBUG_VALUE: __read_once_size:p <- [DW_OP_plus_uconst 24, DW_OP_stack_value] $x8
	//DEBUG_VALUE: __read_once_size:res <- undef
	//DEBUG_VALUE: __read_once_size:size <- 4
	.loc	154 183 2               // kernel/include/linux/compiler.h:183:2
	ldr	w9, [x8, #24]
.Ltmp41:
	//DEBUG_VALUE: __read_once_size:p <- [DW_OP_plus_uconst 16, DW_OP_stack_value] $x8
	//DEBUG_VALUE: __read_once_size:size <- 4
	//DEBUG_VALUE: __read_once_size:res <- undef
	.loc	154 183 2 is_stmt 0     // kernel/include/linux/compiler.h:183:2
	ldr	w10, [x8, #16]
.Ltmp42:
	.loc	154 183 2               // kernel/include/linux/compiler.h:183:2
	ldr	w8, [x8, #20]
.Ltmp43:
	.loc	1 399 58 is_stmt 1      // kernel/block/mas_blk_iosched_ufs_mq.c:399:58
	add	w9, w10, w9
.Ltmp44:
	//DEBUG_VALUE: __read_once_size:p <- [DW_OP_plus_uconst 20, DW_OP_stack_value] undef
	//DEBUG_VALUE: __read_once_size:size <- 4
	//DEBUG_VALUE: __read_once_size:res <- undef
	.loc	1 400 53                // kernel/block/mas_blk_iosched_ufs_mq.c:400:53
	add	w0, w9, w8
.Ltmp45:
.LBB4_4:
	.loc	1 402 1                 // kernel/block/mas_blk_iosched_ufs_mq.c:402:1
	ret
.LBB4_5:
.Ltmp46:
	//DEBUG_VALUE: get_mq_all_tag_used:sched_ds_lld <- $x8
	//DEBUG_VALUE: get_mq_all_tag_used:lld <- $x0
	.loc	1 0 0 is_stmt 0         // kernel/block/mas_blk_iosched_ufs_mq.c:0:0
	mov	w0, wzr
.Ltmp47:
	.loc	1 402 1                 // kernel/block/mas_blk_iosched_ufs_mq.c:402:1
	ret
.Ltmp48:
.Lfunc_end4:
	.size	get_mq_all_tag_used, .Lfunc_end4-get_mq_all_tag_used
	.cfi_endproc
                                        // -- End function
	.section	.text.get_mq_prio_tag_used,"ax",@progbits
	.hidden	get_mq_prio_tag_used    // -- Begin function get_mq_prio_tag_used
	.globl	get_mq_prio_tag_used
	.p2align	2
	.type	get_mq_prio_tag_used,@function
get_mq_prio_tag_used:                   // @get_mq_prio_tag_used
.Lfunc_begin5:
	.loc	1 405 0 is_stmt 1       // kernel/block/mas_blk_iosched_ufs_mq.c:405:0
	.cfi_startproc
// %bb.0:
	//DEBUG_VALUE: get_mq_prio_tag_used:q <- $x0
	//DEBUG_VALUE: get_mq_prio_tag_used:q <- $x0
	//DEBUG_VALUE: get_mq_prio_tag_used:sched_ds_lld <- 0
	//DEBUG_VALUE: get_mq_prio_tag_used:lld <- 0
	.loc	1 409 6 prologue_end    // kernel/block/mas_blk_iosched_ufs_mq.c:409:6
	cbz	x0, .LBB5_4
.Ltmp49:
// %bb.1:
	//DEBUG_VALUE: get_mq_prio_tag_used:q <- $x0
	stp	x29, x30, [sp, #-16]!   // 16-byte Folded Spill
	mov	x29, sp
	.cfi_def_cfa w29, 16
	.cfi_offset w30, -8
	.cfi_offset w29, -16
	.loc	1 411 8                 // kernel/block/mas_blk_iosched_ufs_mq.c:411:8
	bl	mas_blk_get_lld
.Ltmp50:
	//DEBUG_VALUE: get_mq_prio_tag_used:lld <- $x0
	.loc	1 412 6                 // kernel/block/mas_blk_iosched_ufs_mq.c:412:6
	ldp	x29, x30, [sp], #16     // 16-byte Folded Reload
	cbz	x0, .LBB5_4
.Ltmp51:
// %bb.2:
	//DEBUG_VALUE: get_mq_prio_tag_used:lld <- $x0
	.loc	1 414 53                // kernel/block/mas_blk_iosched_ufs_mq.c:414:53
	ldr	x8, [x0, #544]
.Ltmp52:
	//DEBUG_VALUE: get_mq_prio_tag_used:sched_ds_lld <- $x8
	.loc	1 415 6                 // kernel/block/mas_blk_iosched_ufs_mq.c:415:6
	cbz	x8, .LBB5_5
.Ltmp53:
// %bb.3:
	//DEBUG_VALUE: get_mq_prio_tag_used:sched_ds_lld <- $x8
	//DEBUG_VALUE: get_mq_prio_tag_used:lld <- $x0
	//DEBUG_VALUE: __read_once_size:p <- [DW_OP_plus_uconst 24, DW_OP_stack_value] $x8
	//DEBUG_VALUE: __read_once_size:res <- undef
	//DEBUG_VALUE: __read_once_size:size <- 4
	.loc	154 183 2               // kernel/include/linux/compiler.h:183:2
	ldr	w0, [x8, #24]
.Ltmp54:
.LBB5_4:
	.loc	1 418 1                 // kernel/block/mas_blk_iosched_ufs_mq.c:418:1
	ret
.LBB5_5:
.Ltmp55:
	//DEBUG_VALUE: get_mq_prio_tag_used:sched_ds_lld <- $x8
	//DEBUG_VALUE: get_mq_prio_tag_used:lld <- $x0
	.loc	1 0 0 is_stmt 0         // kernel/block/mas_blk_iosched_ufs_mq.c:0:0
	mov	w0, wzr
.Ltmp56:
	.loc	1 418 1                 // kernel/block/mas_blk_iosched_ufs_mq.c:418:1
	ret
.Ltmp57:
.Lfunc_end5:
	.size	get_mq_prio_tag_used, .Lfunc_end5-get_mq_prio_tag_used
	.cfi_endproc
                                        // -- End function
	.section	.text.ufs_mq_tag_get,"ax",@progbits
	.hidden	ufs_mq_tag_get          // -- Begin function ufs_mq_tag_get
	.globl	ufs_mq_tag_get
	.p2align	2
	.type	ufs_mq_tag_get,@function
ufs_mq_tag_get:                         // @ufs_mq_tag_get
.Lfunc_begin6:
	.loc	1 451 0 is_stmt 1       // kernel/block/mas_blk_iosched_ufs_mq.c:451:0
	.cfi_startproc
// %bb.0:
	//DEBUG_VALUE: ufs_mq_tag_get:data <- $x0
	str	x19, [sp, #-32]!        // 8-byte Folded Spill
	stp	x29, x30, [sp, #16]     // 16-byte Folded Spill
	add	x29, sp, #16            // =16
	.cfi_def_cfa w29, 16
	.cfi_offset w30, -8
	.cfi_offset w29, -16
	.cfi_offset w19, -32
.Ltmp58:
	.loc	1 452 29 prologue_end   // kernel/block/mas_blk_iosched_ufs_mq.c:452:29
	ldr	x9, [x0, #8]
	mov	w10, #4096
	movk	w10, #64, lsl #16
	.loc	1 452 37 is_stmt 0      // kernel/block/mas_blk_iosched_ufs_mq.c:452:37
	add	x8, x10, #2048          // =2048
	and	x8, x9, x8
.Ltmp59:
	//DEBUG_VALUE: ufs_mq_tag_get:flag <- $x8
	.loc	1 0 37                  // kernel/block/mas_blk_iosched_ufs_mq.c:0:37
	mov	x19, x0
.Ltmp60:
	//DEBUG_VALUE: ufs_mq_tag_get:data <- $x19
	.loc	1 460 6 is_stmt 1       // kernel/block/mas_blk_iosched_ufs_mq.c:460:6
	cmp	x8, #2048               // =2048
	b.ne	.LBB6_6
.Ltmp61:
// %bb.1:
	//DEBUG_VALUE: ufs_mq_tag_get:data <- $x19
	//DEBUG_VALUE: ufs_mq_tag_get:flag <- $x8
	//DEBUG_VALUE: ufs_tagset_get_tag:data <- $x19
	.loc	1 333 10                // kernel/block/mas_blk_iosched_ufs_mq.c:333:10
	ldr	x2, [x19, #48]
	.loc	1 332 8                 // kernel/block/mas_blk_iosched_ufs_mq.c:332:8
	mov	x0, x19
	.loc	1 333 16                // kernel/block/mas_blk_iosched_ufs_mq.c:333:16
	ldr	x8, [x2, #304]
.Ltmp62:
	.loc	1 333 22 is_stmt 0      // kernel/block/mas_blk_iosched_ufs_mq.c:333:22
	add	x1, x8, #40             // =40
	.loc	1 332 8 is_stmt 1       // kernel/block/mas_blk_iosched_ufs_mq.c:332:8
	bl	ufs_tagset_bt_get
.Ltmp63:
	//DEBUG_VALUE: ufs_tagset_get_tag:tag <- $w0
	.loc	1 334 6                 // kernel/block/mas_blk_iosched_ufs_mq.c:334:6
	cmn	w0, #1                  // =1
	b.eq	.LBB6_5
.Ltmp64:
// %bb.2:
	//DEBUG_VALUE: ufs_tagset_get_tag:tag <- $w0
	//DEBUG_VALUE: ufs_tagset_get_tag:data <- $x19
	//DEBUG_VALUE: ufs_mq_tag_get:data <- $x19
	.loc	1 335 3                 // kernel/block/mas_blk_iosched_ufs_mq.c:335:3
	ldr	x8, [x19]
.Ltmp65:
	//DEBUG_VALUE: get_sched_ds_lld:q <- $x8
	.loc	1 259 33                // kernel/block/mas_blk_iosched_ufs_mq.c:259:33
	ldr	x8, [x8, #1800]
.Ltmp66:
	//DEBUG_VALUE: get_sched_ds_lld:queuedata <- $x8
	.loc	1 261 9                 // kernel/block/mas_blk_iosched_ufs_mq.c:261:9
	cbz	x8, .LBB6_4
.Ltmp67:
// %bb.3:
	//DEBUG_VALUE: get_sched_ds_lld:queuedata <- $x8
	//DEBUG_VALUE: ufs_tagset_get_tag:tag <- $w0
	//DEBUG_VALUE: ufs_tagset_get_tag:data <- $x19
	//DEBUG_VALUE: ufs_mq_tag_get:data <- $x19
	.loc	1 261 61 is_stmt 0      // kernel/block/mas_blk_iosched_ufs_mq.c:261:61
	ldr	x8, [x8, #280]
.Ltmp68:
.LBB6_4:
	//DEBUG_VALUE: ufs_tagset_get_tag:tag <- $w0
	//DEBUG_VALUE: ufs_tagset_get_tag:data <- $x19
	//DEBUG_VALUE: ufs_mq_tag_get:data <- $x19
	//DEBUG_VALUE: atomic_add:i <- 1
	//DEBUG_VALUE: atomic_add:v <- [DW_OP_plus_uconst 16, DW_OP_stack_value] $x8
	.loc	153 113 1 is_stmt 1     // kernel/arch/arm64/include/asm/atomic_ll_sc.h:113:1
	add	x8, x8, #16             // =16
.Ltmp69:
	//APP
	// atomic_add
	prfm	pstl1strm, [x8]
1:	ldxr	w9, [x8]
	add	w9, w9, #1
	stxr	w10, w9, [x8]
	cbnz	w10, 1b
	//NO_APP
.Ltmp70:
	//DEBUG_VALUE: atomic_add:tmp <- undef
	//DEBUG_VALUE: atomic_add:result <- undef
.LBB6_5:
	//DEBUG_VALUE: ufs_mq_tag_get:data <- $x19
	//DEBUG_VALUE: ufs_mq_tag_get:tag <- $w0
	.loc	1 467 2                 // kernel/block/mas_blk_iosched_ufs_mq.c:467:2
	ldp	x29, x30, [sp, #16]     // 16-byte Folded Reload
	ldr	x19, [sp], #32          // 8-byte Folded Reload
.Ltmp71:
	ret
.Ltmp72:
.LBB6_6:
	//DEBUG_VALUE: ufs_mq_tag_get:data <- $x19
	//DEBUG_VALUE: ufs_mq_tag_get:flag <- $x8
	.loc	1 0 0 is_stmt 0         // kernel/block/mas_blk_iosched_ufs_mq.c:0:0
	ldr	x2, [x19, #48]
	.loc	1 462 16 is_stmt 1      // kernel/block/mas_blk_iosched_ufs_mq.c:462:16
	tst	x9, x10
	.loc	1 0 0 is_stmt 0         // kernel/block/mas_blk_iosched_ufs_mq.c:0:0
	ldr	x8, [x2, #304]
.Ltmp73:
	.loc	1 462 11                // kernel/block/mas_blk_iosched_ufs_mq.c:462:11
	b.eq	.LBB6_12
.Ltmp74:
// %bb.7:
	//DEBUG_VALUE: ufs_mq_tag_get:data <- $x19
	//DEBUG_VALUE: ufs_tagset_get_high_prio_tag:data <- $x19
	.loc	1 369 6 is_stmt 1       // kernel/block/mas_blk_iosched_ufs_mq.c:369:6
	ldr	w9, [x8, #8]
.Ltmp75:
	.loc	1 369 6 is_stmt 0       // kernel/block/mas_blk_iosched_ufs_mq.c:369:6
	cbz	w9, .LBB6_18
.Ltmp76:
// %bb.8:
	//DEBUG_VALUE: ufs_tagset_get_high_prio_tag:data <- $x19
	//DEBUG_VALUE: ufs_mq_tag_get:data <- $x19
	.loc	1 378 22 is_stmt 1      // kernel/block/mas_blk_iosched_ufs_mq.c:378:22
	add	x1, x8, #152            // =152
	.loc	1 377 8                 // kernel/block/mas_blk_iosched_ufs_mq.c:377:8
	mov	x0, x19
	bl	ufs_tagset_bt_get
.Ltmp77:
	//DEBUG_VALUE: ufs_tagset_get_high_prio_tag:tag <- $w0
	.loc	1 379 6                 // kernel/block/mas_blk_iosched_ufs_mq.c:379:6
	cmn	w0, #1                  // =1
	b.eq	.LBB6_5
.Ltmp78:
// %bb.9:
	//DEBUG_VALUE: ufs_tagset_get_high_prio_tag:tag <- $w0
	//DEBUG_VALUE: ufs_tagset_get_high_prio_tag:data <- $x19
	//DEBUG_VALUE: ufs_mq_tag_get:data <- $x19
	.loc	1 380 3                 // kernel/block/mas_blk_iosched_ufs_mq.c:380:3
	ldr	x8, [x19]
.Ltmp79:
	//DEBUG_VALUE: get_sched_ds_lld:q <- $x8
	.loc	1 259 33                // kernel/block/mas_blk_iosched_ufs_mq.c:259:33
	ldr	x8, [x8, #1800]
.Ltmp80:
	//DEBUG_VALUE: get_sched_ds_lld:queuedata <- $x8
	.loc	1 261 9                 // kernel/block/mas_blk_iosched_ufs_mq.c:261:9
	cbz	x8, .LBB6_11
.Ltmp81:
// %bb.10:
	//DEBUG_VALUE: get_sched_ds_lld:queuedata <- $x8
	//DEBUG_VALUE: ufs_tagset_get_high_prio_tag:tag <- $w0
	//DEBUG_VALUE: ufs_tagset_get_high_prio_tag:data <- $x19
	//DEBUG_VALUE: ufs_mq_tag_get:data <- $x19
	.loc	1 261 61 is_stmt 0      // kernel/block/mas_blk_iosched_ufs_mq.c:261:61
	ldr	x8, [x8, #280]
.Ltmp82:
.LBB6_11:
	//DEBUG_VALUE: ufs_tagset_get_high_prio_tag:tag <- $w0
	//DEBUG_VALUE: ufs_tagset_get_high_prio_tag:data <- $x19
	//DEBUG_VALUE: ufs_mq_tag_get:data <- $x19
	//DEBUG_VALUE: atomic_add:i <- 1
	//DEBUG_VALUE: atomic_add:v <- [DW_OP_plus_uconst 24, DW_OP_stack_value] $x8
	.loc	153 113 1 is_stmt 1     // kernel/arch/arm64/include/asm/atomic_ll_sc.h:113:1
	add	x8, x8, #24             // =24
.Ltmp83:
	//APP
	// atomic_add
	prfm	pstl1strm, [x8]
1:	ldxr	w9, [x8]
	add	w9, w9, #1
	stxr	w10, w9, [x8]
	cbnz	w10, 1b
	//NO_APP
.Ltmp84:
	//DEBUG_VALUE: atomic_add:tmp <- undef
	//DEBUG_VALUE: atomic_add:result <- undef
	.loc	1 381 16                // kernel/block/mas_blk_iosched_ufs_mq.c:381:16
	ldr	x8, [x19, #48]
	.loc	1 381 22 is_stmt 0      // kernel/block/mas_blk_iosched_ufs_mq.c:381:22
	ldr	x8, [x8, #304]
	.loc	1 381 28                // kernel/block/mas_blk_iosched_ufs_mq.c:381:28
	ldr	w8, [x8, #20]
	b	.LBB6_17
.Ltmp85:
.LBB6_12:
	//DEBUG_VALUE: ufs_mq_tag_get:data <- $x19
	//DEBUG_VALUE: ufs_tagset_get_reserved_tag:data <- $x19
	.loc	1 345 6 is_stmt 1       // kernel/block/mas_blk_iosched_ufs_mq.c:345:6
	ldr	w9, [x8, #4]
.Ltmp86:
	.loc	1 345 6 is_stmt 0       // kernel/block/mas_blk_iosched_ufs_mq.c:345:6
	cbz	w9, .LBB6_18
.Ltmp87:
// %bb.13:
	//DEBUG_VALUE: ufs_tagset_get_reserved_tag:data <- $x19
	//DEBUG_VALUE: ufs_mq_tag_get:data <- $x19
	.loc	1 354 22 is_stmt 1      // kernel/block/mas_blk_iosched_ufs_mq.c:354:22
	add	x1, x8, #96             // =96
	.loc	1 353 8                 // kernel/block/mas_blk_iosched_ufs_mq.c:353:8
	mov	x0, x19
	bl	ufs_tagset_bt_get
.Ltmp88:
	//DEBUG_VALUE: ufs_tagset_get_reserved_tag:tag <- $w0
	.loc	1 355 6                 // kernel/block/mas_blk_iosched_ufs_mq.c:355:6
	cmn	w0, #1                  // =1
	b.eq	.LBB6_5
.Ltmp89:
// %bb.14:
	//DEBUG_VALUE: ufs_tagset_get_reserved_tag:tag <- $w0
	//DEBUG_VALUE: ufs_tagset_get_reserved_tag:data <- $x19
	//DEBUG_VALUE: ufs_mq_tag_get:data <- $x19
	.loc	1 356 3                 // kernel/block/mas_blk_iosched_ufs_mq.c:356:3
	ldr	x8, [x19]
.Ltmp90:
	//DEBUG_VALUE: get_sched_ds_lld:q <- $x8
	.loc	1 259 33                // kernel/block/mas_blk_iosched_ufs_mq.c:259:33
	ldr	x8, [x8, #1800]
.Ltmp91:
	//DEBUG_VALUE: get_sched_ds_lld:queuedata <- $x8
	.loc	1 261 9                 // kernel/block/mas_blk_iosched_ufs_mq.c:261:9
	cbz	x8, .LBB6_16
.Ltmp92:
// %bb.15:
	//DEBUG_VALUE: get_sched_ds_lld:queuedata <- $x8
	//DEBUG_VALUE: ufs_tagset_get_reserved_tag:tag <- $w0
	//DEBUG_VALUE: ufs_tagset_get_reserved_tag:data <- $x19
	//DEBUG_VALUE: ufs_mq_tag_get:data <- $x19
	.loc	1 261 61 is_stmt 0      // kernel/block/mas_blk_iosched_ufs_mq.c:261:61
	ldr	x8, [x8, #280]
.Ltmp93:
.LBB6_16:
	//DEBUG_VALUE: ufs_tagset_get_reserved_tag:tag <- $w0
	//DEBUG_VALUE: ufs_tagset_get_reserved_tag:data <- $x19
	//DEBUG_VALUE: ufs_mq_tag_get:data <- $x19
	//DEBUG_VALUE: atomic_add:i <- 1
	//DEBUG_VALUE: atomic_add:v <- [DW_OP_plus_uconst 20, DW_OP_stack_value] $x8
	.loc	153 113 1 is_stmt 1     // kernel/arch/arm64/include/asm/atomic_ll_sc.h:113:1
	add	x8, x8, #20             // =20
.Ltmp94:
	//APP
	// atomic_add
	prfm	pstl1strm, [x8]
1:	ldxr	w9, [x8]
	add	w9, w9, #1
	stxr	w10, w9, [x8]
	cbnz	w10, 1b
	//NO_APP
.Ltmp95:
	//DEBUG_VALUE: atomic_add:tmp <- undef
	//DEBUG_VALUE: atomic_add:result <- undef
	.loc	1 358 16                // kernel/block/mas_blk_iosched_ufs_mq.c:358:16
	ldr	x8, [x19, #48]
	.loc	1 358 22 is_stmt 0      // kernel/block/mas_blk_iosched_ufs_mq.c:358:22
	ldr	x8, [x8, #304]
	.loc	1 358 28                // kernel/block/mas_blk_iosched_ufs_mq.c:358:28
	ldr	w8, [x8, #16]
.Ltmp96:
.LBB6_17:
	//DEBUG_VALUE: ufs_mq_tag_get:data <- $x19
	.loc	1 0 0                   // kernel/block/mas_blk_iosched_ufs_mq.c:0:0
	add	w0, w8, w0
.Ltmp97:
	//DEBUG_VALUE: ufs_tagset_get_reserved_tag:tag <- $w0
	b	.LBB6_5
.Ltmp98:
.LBB6_18:
	//DEBUG_VALUE: ufs_mq_tag_get:data <- $x19
	mov	w0, #-1
	b	.LBB6_5
.Lfunc_end6:
	.size	ufs_mq_tag_get, .Lfunc_end6-ufs_mq_tag_get
	.cfi_endproc
                                        // -- End function
	.section	.text.ufs_mq_tag_put,"ax",@progbits
	.hidden	ufs_mq_tag_put          // -- Begin function ufs_mq_tag_put
	.globl	ufs_mq_tag_put
	.p2align	2
	.type	ufs_mq_tag_put,@function
ufs_mq_tag_put:                         // @ufs_mq_tag_put
.Lfunc_begin7:
	.loc	1 473 0 is_stmt 1       // kernel/block/mas_blk_iosched_ufs_mq.c:473:0
	.cfi_startproc
// %bb.0:
	//DEBUG_VALUE: ufs_mq_tag_put:hctx <- $x0
	//DEBUG_VALUE: ufs_mq_tag_put:tag <- $w1
	//DEBUG_VALUE: ufs_mq_tag_put:rq <- $x2
	str	x19, [sp, #-32]!        // 8-byte Folded Spill
	stp	x29, x30, [sp, #16]     // 16-byte Folded Spill
	add	x29, sp, #16            // =16
	.cfi_def_cfa w29, 16
	.cfi_offset w30, -8
	.cfi_offset w29, -16
	.cfi_offset w19, -32
.Ltmp99:
	.loc	1 474 35 prologue_end   // kernel/block/mas_blk_iosched_ufs_mq.c:474:35
	ldr	x8, [x0, #304]
.Ltmp100:
	//DEBUG_VALUE: ufs_mq_tag_put:tags <- $x8
	.loc	1 0 35 is_stmt 0        // kernel/block/mas_blk_iosched_ufs_mq.c:0:35
	mov	x19, x0
.Ltmp101:
	//DEBUG_VALUE: ufs_mq_tag_put:hctx <- $x19
	.loc	1 476 6 is_stmt 1       // kernel/block/mas_blk_iosched_ufs_mq.c:476:6
	ldr	w9, [x8, #20]
.Ltmp102:
	//DEBUG_VALUE: ufs_mq_tag_put:tag <- $w1
	.loc	1 476 6 is_stmt 0       // kernel/block/mas_blk_iosched_ufs_mq.c:476:6
	cmp	w9, w1
	//DEBUG_VALUE: ufs_mq_tag_put:rq <- $x2
	b.ls	.LBB7_6
.Ltmp103:
// %bb.1:
	//DEBUG_VALUE: ufs_mq_tag_put:hctx <- $x19
	//DEBUG_VALUE: ufs_mq_tag_put:tags <- $x8
	//DEBUG_VALUE: ufs_mq_tag_put:rq <- $x2
	//DEBUG_VALUE: ufs_mq_tag_put:tag <- $w1
	.loc	1 482 13 is_stmt 1      // kernel/block/mas_blk_iosched_ufs_mq.c:482:13
	ldr	w9, [x8, #16]
.Ltmp104:
	.loc	1 482 13 is_stmt 0      // kernel/block/mas_blk_iosched_ufs_mq.c:482:13
	cmp	w9, w1
	b.ls	.LBB7_9
.Ltmp105:
// %bb.2:
	//DEBUG_VALUE: ufs_mq_tag_put:hctx <- $x19
	//DEBUG_VALUE: ufs_mq_tag_put:tags <- $x8
	//DEBUG_VALUE: ufs_mq_tag_put:rq <- $x2
	//DEBUG_VALUE: ufs_mq_tag_put:tag <- $w1
	.loc	1 490 16 is_stmt 1      // kernel/block/mas_blk_iosched_ufs_mq.c:490:16
	ldr	x9, [x2, #304]
	.loc	1 489 30                // kernel/block/mas_blk_iosched_ufs_mq.c:489:30
	add	x0, x8, #40             // =40
	.loc	1 490 33                // kernel/block/mas_blk_iosched_ufs_mq.c:490:33
	ldr	w2, [x9, #64]
.Ltmp106:
	.loc	1 489 3                 // kernel/block/mas_blk_iosched_ufs_mq.c:489:3
	bl	sbitmap_queue_clear
.Ltmp107:
	.loc	1 491 3                 // kernel/block/mas_blk_iosched_ufs_mq.c:491:3
	ldr	x8, [x19, #192]
.Ltmp108:
	//DEBUG_VALUE: get_sched_ds_lld:q <- $x8
	.loc	1 259 33                // kernel/block/mas_blk_iosched_ufs_mq.c:259:33
	ldr	x8, [x8, #1800]
.Ltmp109:
	//DEBUG_VALUE: get_sched_ds_lld:queuedata <- $x8
	.loc	1 261 9                 // kernel/block/mas_blk_iosched_ufs_mq.c:261:9
	cbz	x8, .LBB7_4
.Ltmp110:
// %bb.3:
	//DEBUG_VALUE: get_sched_ds_lld:queuedata <- $x8
	//DEBUG_VALUE: ufs_mq_tag_put:hctx <- $x19
	.loc	1 261 61 is_stmt 0      // kernel/block/mas_blk_iosched_ufs_mq.c:261:61
	ldr	x8, [x8, #280]
.Ltmp111:
.LBB7_4:
	//DEBUG_VALUE: ufs_mq_tag_put:hctx <- $x19
	//DEBUG_VALUE: atomic_sub:i <- 1
	//DEBUG_VALUE: atomic_sub:v <- [DW_OP_plus_uconst 16, DW_OP_stack_value] $x8
	.loc	153 114 1 is_stmt 1     // kernel/arch/arm64/include/asm/atomic_ll_sc.h:114:1
	add	x8, x8, #16             // =16
.Ltmp112:
	//APP
	// atomic_sub
	prfm	pstl1strm, [x8]
1:	ldxr	w9, [x8]
	sub	w9, w9, #1
	stxr	w10, w9, [x8]
	cbnz	w10, 1b
	//NO_APP
.Ltmp113:
	//DEBUG_VALUE: atomic_sub:tmp <- undef
	//DEBUG_VALUE: atomic_sub:result <- undef
.LBB7_5:
	//DEBUG_VALUE: ufs_mq_tag_put:hctx <- $x19
	.loc	1 493 2                 // kernel/block/mas_blk_iosched_ufs_mq.c:493:2
	ldp	x29, x30, [sp, #16]     // 16-byte Folded Reload
	mov	w0, wzr
	ldr	x19, [sp], #32          // 8-byte Folded Reload
.Ltmp114:
	ret
.LBB7_6:
.Ltmp115:
	//DEBUG_VALUE: ufs_mq_tag_put:hctx <- $x19
	//DEBUG_VALUE: ufs_mq_tag_put:tags <- $x8
	//DEBUG_VALUE: ufs_mq_tag_put:rq <- $x2
	//DEBUG_VALUE: ufs_mq_tag_put:tag <- $w1
	.loc	1 479 16                // kernel/block/mas_blk_iosched_ufs_mq.c:479:16
	ldr	x10, [x2, #304]
	.loc	1 477 30                // kernel/block/mas_blk_iosched_ufs_mq.c:477:30
	add	x0, x8, #152            // =152
	.loc	1 478 9                 // kernel/block/mas_blk_iosched_ufs_mq.c:478:9
	sub	w1, w1, w9
.Ltmp116:
	.loc	1 479 33                // kernel/block/mas_blk_iosched_ufs_mq.c:479:33
	ldr	w2, [x10, #64]
.Ltmp117:
	.loc	1 477 3                 // kernel/block/mas_blk_iosched_ufs_mq.c:477:3
	bl	sbitmap_queue_clear
.Ltmp118:
	.loc	1 480 3                 // kernel/block/mas_blk_iosched_ufs_mq.c:480:3
	ldr	x8, [x19, #192]
.Ltmp119:
	//DEBUG_VALUE: get_sched_ds_lld:q <- $x8
	.loc	1 259 33                // kernel/block/mas_blk_iosched_ufs_mq.c:259:33
	ldr	x8, [x8, #1800]
.Ltmp120:
	//DEBUG_VALUE: get_sched_ds_lld:queuedata <- $x8
	.loc	1 261 9                 // kernel/block/mas_blk_iosched_ufs_mq.c:261:9
	cbz	x8, .LBB7_8
.Ltmp121:
// %bb.7:
	//DEBUG_VALUE: get_sched_ds_lld:queuedata <- $x8
	//DEBUG_VALUE: ufs_mq_tag_put:hctx <- $x19
	.loc	1 261 61 is_stmt 0      // kernel/block/mas_blk_iosched_ufs_mq.c:261:61
	ldr	x8, [x8, #280]
.Ltmp122:
.LBB7_8:
	//DEBUG_VALUE: ufs_mq_tag_put:hctx <- $x19
	//DEBUG_VALUE: atomic_sub:i <- 1
	//DEBUG_VALUE: atomic_sub:v <- [DW_OP_plus_uconst 24, DW_OP_stack_value] $x8
	.loc	153 114 1 is_stmt 1     // kernel/arch/arm64/include/asm/atomic_ll_sc.h:114:1
	add	x8, x8, #24             // =24
.Ltmp123:
	//APP
	// atomic_sub
	prfm	pstl1strm, [x8]
1:	ldxr	w9, [x8]
	sub	w9, w9, #1
	stxr	w10, w9, [x8]
	cbnz	w10, 1b
	//NO_APP
.Ltmp124:
	//DEBUG_VALUE: atomic_sub:tmp <- undef
	//DEBUG_VALUE: atomic_sub:result <- undef
	.loc	153 0 1 is_stmt 0       // kernel/arch/arm64/include/asm/atomic_ll_sc.h:0:1
	b	.LBB7_5
.Ltmp125:
.LBB7_9:
	//DEBUG_VALUE: ufs_mq_tag_put:hctx <- $x19
	//DEBUG_VALUE: ufs_mq_tag_put:tags <- $x8
	//DEBUG_VALUE: ufs_mq_tag_put:rq <- $x2
	//DEBUG_VALUE: ufs_mq_tag_put:tag <- $w1
	.loc	1 485 16 is_stmt 1      // kernel/block/mas_blk_iosched_ufs_mq.c:485:16
	ldr	x10, [x2, #304]
	.loc	1 483 30                // kernel/block/mas_blk_iosched_ufs_mq.c:483:30
	add	x0, x8, #96             // =96
	.loc	1 484 9                 // kernel/block/mas_blk_iosched_ufs_mq.c:484:9
	sub	w1, w1, w9
.Ltmp126:
	.loc	1 485 33                // kernel/block/mas_blk_iosched_ufs_mq.c:485:33
	ldr	w2, [x10, #64]
.Ltmp127:
	.loc	1 483 3                 // kernel/block/mas_blk_iosched_ufs_mq.c:483:3
	bl	sbitmap_queue_clear
.Ltmp128:
	.loc	1 486 3                 // kernel/block/mas_blk_iosched_ufs_mq.c:486:3
	ldr	x8, [x19, #192]
.Ltmp129:
	//DEBUG_VALUE: get_sched_ds_lld:q <- $x8
	.loc	1 259 33                // kernel/block/mas_blk_iosched_ufs_mq.c:259:33
	ldr	x8, [x8, #1800]
.Ltmp130:
	//DEBUG_VALUE: get_sched_ds_lld:queuedata <- $x8
	.loc	1 261 9                 // kernel/block/mas_blk_iosched_ufs_mq.c:261:9
	cbz	x8, .LBB7_11
.Ltmp131:
// %bb.10:
	//DEBUG_VALUE: get_sched_ds_lld:queuedata <- $x8
	//DEBUG_VALUE: ufs_mq_tag_put:hctx <- $x19
	.loc	1 261 61 is_stmt 0      // kernel/block/mas_blk_iosched_ufs_mq.c:261:61
	ldr	x8, [x8, #280]
.Ltmp132:
.LBB7_11:
	//DEBUG_VALUE: ufs_mq_tag_put:hctx <- $x19
	//DEBUG_VALUE: atomic_sub:i <- 1
	//DEBUG_VALUE: atomic_sub:v <- [DW_OP_plus_uconst 20, DW_OP_stack_value] $x8
	.loc	153 114 1 is_stmt 1     // kernel/arch/arm64/include/asm/atomic_ll_sc.h:114:1
	add	x8, x8, #20             // =20
.Ltmp133:
	//APP
	// atomic_sub
	prfm	pstl1strm, [x8]
1:	ldxr	w9, [x8]
	sub	w9, w9, #1
	stxr	w10, w9, [x8]
	cbnz	w10, 1b
	//NO_APP
.Ltmp134:
	//DEBUG_VALUE: atomic_sub:tmp <- undef
	//DEBUG_VALUE: atomic_sub:result <- undef
	.loc	153 0 1 is_stmt 0       // kernel/arch/arm64/include/asm/atomic_ll_sc.h:0:1
	b	.LBB7_5
.Ltmp135:
.Lfunc_end7:
	.size	ufs_mq_tag_put, .Lfunc_end7-ufs_mq_tag_put
	.cfi_endproc
                                        // -- End function
	.section	.text.ufs_mq_sync_burst_check_timer_expire,"ax",@progbits
	.hidden	ufs_mq_sync_burst_check_timer_expire // -- Begin function ufs_mq_sync_burst_check_timer_expire
	.globl	ufs_mq_sync_burst_check_timer_expire
	.p2align	2
	.type	ufs_mq_sync_burst_check_timer_expire,@function
ufs_mq_sync_burst_check_timer_expire:   // @ufs_mq_sync_burst_check_timer_expire
.Lfunc_begin8:
	.loc	1 587 0 is_stmt 1       // kernel/block/mas_blk_iosched_ufs_mq.c:587:0
	.cfi_startproc
// %bb.0:
	//DEBUG_VALUE: ufs_mq_sync_burst_check_timer_expire:data <- $x0
	stp	x20, x19, [sp, #-32]!   // 16-byte Folded Spill
	stp	x29, x30, [sp, #16]     // 16-byte Folded Spill
	add	x29, sp, #16            // =16
	.cfi_def_cfa w29, 16
	.cfi_offset w30, -8
	.cfi_offset w29, -16
	.cfi_offset w19, -24
	.cfi_offset w20, -32
	mov	x19, x0
.Ltmp136:
	//DEBUG_VALUE: ufs_mq_sync_burst_check_timer_expire:restart_timer <- 0
	//DEBUG_VALUE: ufs_mq_sync_burst_check_timer_expire:data <- $x19
	.loc	1 589 22 prologue_end   // kernel/block/mas_blk_iosched_ufs_mq.c:589:22
	bl	ktime_get
.Ltmp137:
	.loc	154 183 2               // kernel/include/linux/compiler.h:183:2
	ldr	w8, [x19, #272]
.Ltmp138:
	.loc	1 593 2                 // kernel/block/mas_blk_iosched_ufs_mq.c:593:2
	sub	w8, w8, #1              // =1
	cmp	w8, #1                  // =1
.Ltmp139:
	//DEBUG_VALUE: __read_once_size:p <- [DW_OP_plus_uconst 272, DW_OP_stack_value] $x19
	//DEBUG_VALUE: __write_once_size:p <- [DW_OP_plus_uconst 272, DW_OP_stack_value] $x19
	//DEBUG_VALUE: __read_once_size:p <- [DW_OP_plus_uconst 272, DW_OP_stack_value] $x19
	//DEBUG_VALUE: __write_once_size:p <- [DW_OP_plus_uconst 272, DW_OP_stack_value] $x19
	//DEBUG_VALUE: __write_once_size:p <- [DW_OP_plus_uconst 272, DW_OP_stack_value] $x19
	//DEBUG_VALUE: __read_once_size:p <- [DW_OP_plus_uconst 272, DW_OP_stack_value] $x19
	//DEBUG_VALUE: __write_once_size:p <- [DW_OP_plus_uconst 272, DW_OP_stack_value] $x19
	//DEBUG_VALUE: __write_once_size:p <- [DW_OP_plus_uconst 272, DW_OP_stack_value] $x19
	//DEBUG_VALUE: __write_once_size:p <- [DW_OP_plus_uconst 272, DW_OP_stack_value] $x19
	//DEBUG_VALUE: __read_once_size:size <- 4
	//DEBUG_VALUE: __read_once_size:res <- undef
	//DEBUG_VALUE: ufs_mq_sync_burst_check_timer_expire:ds_lld <- $x19
	//DEBUG_VALUE: burst_mode_dur_g_than:ds_lld <- $x19
	//DEBUG_VALUE: io_submit_intrvl_l_than:ds_lld <- $x19
	//DEBUG_VALUE: ufs_mq_burst_mode_calc_at_sync_io_continue:ds_lld <- $x19
	//DEBUG_VALUE: ufs_mq_burst_mode_calc_at_sync_io_pause:ds_lld <- $x19
	//DEBUG_VALUE: last_sync_io_compl_g_than:ds_lld <- $x19
	//DEBUG_VALUE: io_submit_intrvl_g_than:ds_lld <- $x19
	//DEBUG_VALUE: last_sync_io_compl_g_than:ds_lld <- $x19
	//DEBUG_VALUE: ufs_mq_sync_burst_check_timer_expire:now_ktime <- $x0
	//DEBUG_VALUE: burst_mode_dur_g_than:base <- $x0
	//DEBUG_VALUE: ktime_after:cmp1 <- $x0
	//DEBUG_VALUE: ktime_compare:cmp1 <- $x0
	//DEBUG_VALUE: io_submit_intrvl_l_than:base <- $x0
	//DEBUG_VALUE: ktime_before:cmp1 <- $x0
	//DEBUG_VALUE: ktime_compare:cmp1 <- $x0
	b.hi	.LBB8_3
.Ltmp140:
// %bb.1:
	//DEBUG_VALUE: ktime_compare:cmp1 <- $x0
	//DEBUG_VALUE: ktime_after:cmp1 <- $x0
	//DEBUG_VALUE: burst_mode_dur_g_than:base <- $x0
	//DEBUG_VALUE: ufs_mq_sync_burst_check_timer_expire:now_ktime <- $x0
	//DEBUG_VALUE: burst_mode_dur_g_than:ds_lld <- $x19
	//DEBUG_VALUE: ufs_mq_sync_burst_check_timer_expire:ds_lld <- $x19
	//DEBUG_VALUE: ufs_mq_sync_burst_check_timer_expire:data <- $x19
	//DEBUG_VALUE: burst_mode_dur_g_than:ms <- 500
	.loc	1 533 30                // kernel/block/mas_blk_iosched_ufs_mq.c:533:30
	ldr	x8, [x19, #192]
	mov	w9, #25856
	movk	w9, #7629, lsl #16
.Ltmp141:
	//DEBUG_VALUE: ktime_add_ms:msec <- 500
	//DEBUG_VALUE: ktime_add_ms:kt <- $x8
	.loc	26 200 9                // kernel/include/linux/ktime.h:200:9
	add	x8, x8, x9
.Ltmp142:
	//DEBUG_VALUE: ktime_compare:cmp2 <- $x8
	//DEBUG_VALUE: ktime_after:cmp2 <- $x8
	.loc	1 596 7                 // kernel/block/mas_blk_iosched_ufs_mq.c:596:7
	cmp	x8, x0
	b.ge	.LBB8_3
.Ltmp143:
// %bb.2:
	//DEBUG_VALUE: ufs_mq_sync_burst_check_timer_expire:now_ktime <- $x0
	//DEBUG_VALUE: ufs_mq_sync_burst_check_timer_expire:ds_lld <- $x19
	//DEBUG_VALUE: ufs_mq_sync_burst_check_timer_expire:data <- $x19
	//DEBUG_VALUE: __write_once_size:res <- undef
	.loc	1 0 7 is_stmt 0         // kernel/block/mas_blk_iosched_ufs_mq.c:0:7
	orr	w8, wzr, #0x3
.Ltmp144:
	//DEBUG_VALUE: __write_once_size:size <- 4
	.loc	154 209 31 is_stmt 1    // kernel/include/linux/compiler.h:209:31
	str	w8, [x19, #272]
.Ltmp145:
.LBB8_3:
	//DEBUG_VALUE: ufs_mq_sync_burst_check_timer_expire:now_ktime <- $x0
	//DEBUG_VALUE: ufs_mq_sync_burst_check_timer_expire:ds_lld <- $x19
	//DEBUG_VALUE: ufs_mq_sync_burst_check_timer_expire:data <- $x19
	//DEBUG_VALUE: io_submit_intrvl_l_than:ms <- 10
	.loc	1 501 30                // kernel/block/mas_blk_iosched_ufs_mq.c:501:30
	ldr	x8, [x19, #184]
	mov	w20, #38528
	movk	w20, #152, lsl #16
.Ltmp146:
	//DEBUG_VALUE: ktime_add_ms:msec <- 10
	//DEBUG_VALUE: ktime_add_ms:kt <- $x8
	.loc	26 200 9                // kernel/include/linux/ktime.h:200:9
	add	x8, x8, x20
.Ltmp147:
	//DEBUG_VALUE: ktime_compare:cmp2 <- $x8
	//DEBUG_VALUE: ktime_before:cmp2 <- $x8
	.loc	1 604 6                 // kernel/block/mas_blk_iosched_ufs_mq.c:604:6
	cmp	x8, x0
	b.le	.LBB8_7
.Ltmp148:
// %bb.4:
	//DEBUG_VALUE: ufs_mq_sync_burst_check_timer_expire:now_ktime <- $x0
	//DEBUG_VALUE: ufs_mq_sync_burst_check_timer_expire:ds_lld <- $x19
	//DEBUG_VALUE: ufs_mq_sync_burst_check_timer_expire:data <- $x19
	//DEBUG_VALUE: __read_once_size:res <- undef
	//DEBUG_VALUE: __read_once_size:size <- 4
	.loc	154 183 2               // kernel/include/linux/compiler.h:183:2
	ldr	w8, [x19, #272]
.Ltmp149:
	.loc	1 539 2                 // kernel/block/mas_blk_iosched_ufs_mq.c:539:2
	cmp	w8, #3                  // =3
	b.eq	.LBB8_11
.Ltmp150:
// %bb.5:
	//DEBUG_VALUE: ufs_mq_sync_burst_check_timer_expire:now_ktime <- $x0
	//DEBUG_VALUE: ufs_mq_sync_burst_check_timer_expire:ds_lld <- $x19
	//DEBUG_VALUE: ufs_mq_sync_burst_check_timer_expire:data <- $x19
	cmp	w8, #1                  // =1
	b.ne	.LBB8_18
.Ltmp151:
// %bb.6:
	//DEBUG_VALUE: ufs_mq_sync_burst_check_timer_expire:now_ktime <- $x0
	//DEBUG_VALUE: ufs_mq_sync_burst_check_timer_expire:ds_lld <- $x19
	//DEBUG_VALUE: ufs_mq_sync_burst_check_timer_expire:data <- $x19
	//DEBUG_VALUE: __write_once_size:res <- undef
	.loc	1 0 2 is_stmt 0         // kernel/block/mas_blk_iosched_ufs_mq.c:0:2
	orr	w8, wzr, #0x2
	b	.LBB8_17
.Ltmp152:
.LBB8_7:
	//DEBUG_VALUE: ufs_mq_sync_burst_check_timer_expire:now_ktime <- $x0
	//DEBUG_VALUE: ufs_mq_sync_burst_check_timer_expire:ds_lld <- $x19
	//DEBUG_VALUE: ufs_mq_sync_burst_check_timer_expire:data <- $x19
	//DEBUG_VALUE: ufs_mq_burst_mode_calc_at_sync_io_pause:burst_mode <- 1
	.loc	1 557 16 is_stmt 1      // kernel/block/mas_blk_iosched_ufs_mq.c:557:16
	bl	ktime_get
.Ltmp153:
	.loc	154 183 2               // kernel/include/linux/compiler.h:183:2
	ldr	w8, [x19, #272]
.Ltmp154:
	.loc	1 559 2                 // kernel/block/mas_blk_iosched_ufs_mq.c:559:2
	cmp	w8, #3                  // =3
.Ltmp155:
	//DEBUG_VALUE: __read_once_size:size <- 4
	//DEBUG_VALUE: __read_once_size:res <- undef
	//DEBUG_VALUE: ufs_mq_burst_mode_calc_at_sync_io_pause:now <- $x0
	//DEBUG_VALUE: last_sync_io_compl_g_than:base <- $x0
	//DEBUG_VALUE: ktime_after:cmp1 <- $x0
	//DEBUG_VALUE: ktime_compare:cmp1 <- $x0
	//DEBUG_VALUE: io_submit_intrvl_g_than:base <- $x0
	//DEBUG_VALUE: ktime_after:cmp1 <- $x0
	//DEBUG_VALUE: ktime_compare:cmp1 <- $x0
	//DEBUG_VALUE: last_sync_io_compl_g_than:base <- $x0
	//DEBUG_VALUE: ktime_after:cmp1 <- $x0
	//DEBUG_VALUE: ktime_compare:cmp1 <- $x0
	b.eq	.LBB8_12
.Ltmp156:
// %bb.8:
	//DEBUG_VALUE: ufs_mq_burst_mode_calc_at_sync_io_pause:now <- $x0
	//DEBUG_VALUE: ufs_mq_sync_burst_check_timer_expire:ds_lld <- $x19
	//DEBUG_VALUE: ufs_mq_sync_burst_check_timer_expire:data <- $x19
	cmp	w8, #2                  // =2
	b.eq	.LBB8_15
.Ltmp157:
// %bb.9:
	//DEBUG_VALUE: ufs_mq_burst_mode_calc_at_sync_io_pause:now <- $x0
	//DEBUG_VALUE: ufs_mq_sync_burst_check_timer_expire:ds_lld <- $x19
	//DEBUG_VALUE: ufs_mq_sync_burst_check_timer_expire:data <- $x19
	cmp	w8, #1                  // =1
	b.ne	.LBB8_18
.Ltmp158:
// %bb.10:
	//DEBUG_VALUE: ufs_mq_burst_mode_calc_at_sync_io_pause:now <- $x0
	//DEBUG_VALUE: ufs_mq_sync_burst_check_timer_expire:ds_lld <- $x19
	//DEBUG_VALUE: ufs_mq_sync_burst_check_timer_expire:data <- $x19
	//DEBUG_VALUE: last_sync_io_compl_g_than:ms <- 30
	.loc	1 517 30                // kernel/block/mas_blk_iosched_ufs_mq.c:517:30
	ldr	x8, [x19, #200]
	mov	w9, #50048
	movk	w9, #457, lsl #16
	b	.LBB8_13
.Ltmp159:
.LBB8_11:
	//DEBUG_VALUE: ufs_mq_sync_burst_check_timer_expire:now_ktime <- $x0
	//DEBUG_VALUE: ufs_mq_sync_burst_check_timer_expire:ds_lld <- $x19
	//DEBUG_VALUE: ufs_mq_sync_burst_check_timer_expire:data <- $x19
	//DEBUG_VALUE: __read_once_size:res <- undef
	//DEBUG_VALUE: __read_once_size:size <- 4
	//DEBUG_VALUE: __read_once_size:p <- [DW_OP_plus_uconst 20, DW_OP_stack_value] $x19
	.loc	154 183 2               // kernel/include/linux/compiler.h:183:2
	ldr	w8, [x19, #20]
	cbnz	w8, .LBB8_18
	b	.LBB8_16
.Ltmp160:
.LBB8_12:
	//DEBUG_VALUE: last_sync_io_compl_g_than:base <- $x0
	//DEBUG_VALUE: ufs_mq_burst_mode_calc_at_sync_io_pause:now <- $x0
	//DEBUG_VALUE: ufs_mq_sync_burst_check_timer_expire:ds_lld <- $x19
	//DEBUG_VALUE: ufs_mq_sync_burst_check_timer_expire:data <- $x19
	//DEBUG_VALUE: last_sync_io_compl_g_than:ms <- 20
	.loc	1 517 30                // kernel/block/mas_blk_iosched_ufs_mq.c:517:30
	ldr	x8, [x19, #200]
	mov	w9, #11520
	movk	w9, #305, lsl #16
.Ltmp161:
.LBB8_13:
	//DEBUG_VALUE: ufs_mq_burst_mode_calc_at_sync_io_pause:now <- $x0
	//DEBUG_VALUE: ufs_mq_sync_burst_check_timer_expire:ds_lld <- $x19
	//DEBUG_VALUE: ufs_mq_sync_burst_check_timer_expire:data <- $x19
	//DEBUG_VALUE: ktime_add_ms:msec <- 30
	//DEBUG_VALUE: ktime_add_ms:kt <- $x8
	.loc	1 0 0 is_stmt 0         // kernel/block/mas_blk_iosched_ufs_mq.c:0:0
	add	x8, x8, x9
.Ltmp162:
	//DEBUG_VALUE: ktime_compare:cmp2 <- $x8
	//DEBUG_VALUE: ktime_after:cmp2 <- $x8
	cmp	x8, x0
	b.ge	.LBB8_18
.Ltmp163:
// %bb.14:
	//DEBUG_VALUE: ufs_mq_burst_mode_calc_at_sync_io_pause:now <- $x0
	//DEBUG_VALUE: ufs_mq_sync_burst_check_timer_expire:ds_lld <- $x19
	//DEBUG_VALUE: ufs_mq_sync_burst_check_timer_expire:data <- $x19
	//DEBUG_VALUE: __write_once_size:res <- undef
	//DEBUG_VALUE: __write_once_size:size <- 4
	str	wzr, [x19, #272]
.Ltmp164:
	//DEBUG_VALUE: ufs_mq_burst_mode_calc_at_sync_io_pause:burst_mode <- 0
	b	.LBB8_19
.Ltmp165:
.LBB8_15:
	//DEBUG_VALUE: ufs_mq_burst_mode_calc_at_sync_io_pause:now <- $x0
	//DEBUG_VALUE: ufs_mq_sync_burst_check_timer_expire:ds_lld <- $x19
	//DEBUG_VALUE: ufs_mq_sync_burst_check_timer_expire:data <- $x19
	//DEBUG_VALUE: io_submit_intrvl_g_than:ms <- 10
	.loc	1 509 30 is_stmt 1      // kernel/block/mas_blk_iosched_ufs_mq.c:509:30
	ldr	x8, [x19, #184]
.Ltmp166:
	//DEBUG_VALUE: ktime_add_ms:msec <- 10
	//DEBUG_VALUE: ktime_add_ms:kt <- $x8
	.loc	26 200 9                // kernel/include/linux/ktime.h:200:9
	add	x8, x8, x20
.Ltmp167:
	//DEBUG_VALUE: ktime_compare:cmp2 <- $x8
	//DEBUG_VALUE: ktime_after:cmp2 <- $x8
	.loc	1 568 7                 // kernel/block/mas_blk_iosched_ufs_mq.c:568:7
	cmp	x8, x0
	b.ge	.LBB8_18
.Ltmp168:
.LBB8_16:
	//DEBUG_VALUE: ufs_mq_sync_burst_check_timer_expire:ds_lld <- $x19
	//DEBUG_VALUE: ufs_mq_sync_burst_check_timer_expire:data <- $x19
	//DEBUG_VALUE: __write_once_size:res <- undef
	.loc	1 0 7 is_stmt 0         // kernel/block/mas_blk_iosched_ufs_mq.c:0:7
	orr	w8, wzr, #0x1
.Ltmp169:
.LBB8_17:
	//DEBUG_VALUE: ufs_mq_sync_burst_check_timer_expire:ds_lld <- $x19
	//DEBUG_VALUE: ufs_mq_sync_burst_check_timer_expire:data <- $x19
	//DEBUG_VALUE: __write_once_size:size <- 4
	str	w8, [x19, #272]
.Ltmp170:
.LBB8_18:
	//DEBUG_VALUE: ufs_mq_sync_burst_check_timer_expire:ds_lld <- $x19
	//DEBUG_VALUE: ufs_mq_sync_burst_check_timer_expire:data <- $x19
	.loc	1 613 4 is_stmt 1       // kernel/block/mas_blk_iosched_ufs_mq.c:613:4
	adrp	x8, jiffies
	ldr	x8, [x8, :lo12:jiffies]
	.loc	1 612 22                // kernel/block/mas_blk_iosched_ufs_mq.c:612:22
	add	x0, x19, #224           // =224
	.loc	1 613 12                // kernel/block/mas_blk_iosched_ufs_mq.c:613:12
	add	x1, x8, #3              // =3
	.loc	1 612 3                 // kernel/block/mas_blk_iosched_ufs_mq.c:612:3
	bl	mod_timer
.Ltmp171:
.LBB8_19:
	//DEBUG_VALUE: ufs_mq_sync_burst_check_timer_expire:ds_lld <- $x19
	//DEBUG_VALUE: ufs_mq_sync_burst_check_timer_expire:data <- $x19
	.loc	1 614 1                 // kernel/block/mas_blk_iosched_ufs_mq.c:614:1
	ldp	x29, x30, [sp, #16]     // 16-byte Folded Reload
	ldp	x20, x19, [sp], #32     // 16-byte Folded Reload
.Ltmp172:
	ret
.Ltmp173:
.Lfunc_end8:
	.size	ufs_mq_sync_burst_check_timer_expire, .Lfunc_end8-ufs_mq_sync_burst_check_timer_expire
	.cfi_endproc
                                        // -- End function
	.section	.text.ufs_mq_dump_request,"ax",@progbits
	.hidden	ufs_mq_dump_request     // -- Begin function ufs_mq_dump_request
	.globl	ufs_mq_dump_request
	.p2align	2
	.type	ufs_mq_dump_request,@function
ufs_mq_dump_request:                    // @ufs_mq_dump_request
.Lfunc_begin9:
	.loc	1 665 0                 // kernel/block/mas_blk_iosched_ufs_mq.c:665:0
	.cfi_startproc
// %bb.0:
	//DEBUG_VALUE: ufs_mq_dump_request:q <- $x0
	//DEBUG_VALUE: ufs_mq_dump_request:s <- $w1
	stp	x24, x23, [sp, #-64]!   // 16-byte Folded Spill
	stp	x22, x21, [sp, #16]     // 16-byte Folded Spill
	stp	x20, x19, [sp, #32]     // 16-byte Folded Spill
	stp	x29, x30, [sp, #48]     // 16-byte Folded Spill
	add	x29, sp, #48            // =48
	.cfi_def_cfa w29, 16
	.cfi_offset w30, -8
	.cfi_offset w29, -16
	.cfi_offset w19, -24
	.cfi_offset w20, -32
	.cfi_offset w21, -40
	.cfi_offset w22, -48
	.cfi_offset w23, -56
	.cfi_offset w24, -64
.Ltmp174:
	//DEBUG_VALUE: ufs_mq_dump_request:pos <- 0
	.loc	1 668 44 prologue_end   // kernel/block/mas_blk_iosched_ufs_mq.c:668:44
	ldr	x22, [x0, #1800]
.Ltmp175:
	//DEBUG_VALUE: ufs_mq_dump_request:ds_lld <- 0
	//DEBUG_VALUE: ufs_mq_dump_request:sched_ds <- $x22
	//DEBUG_VALUE: ufs_mq_dump_dispatch_work_stat:work <- [DW_OP_plus_uconst 8, DW_OP_stack_value] $x22
	//DEBUG_VALUE: ufs_mq_dump_dispatch_work_stat:work <- [DW_OP_plus_uconst 136, DW_OP_stack_value] $x22
	.loc	1 671 16                // kernel/block/mas_blk_iosched_ufs_mq.c:671:16
	cbz	x22, .LBB9_19
.Ltmp176:
// %bb.1:
	//DEBUG_VALUE: ufs_mq_dump_request:sched_ds <- $x22
	//DEBUG_VALUE: ufs_mq_dump_request:s <- $w1
	//DEBUG_VALUE: ufs_mq_dump_request:q <- $x0
	.loc	1 671 31 is_stmt 0      // kernel/block/mas_blk_iosched_ufs_mq.c:671:31
	ldr	x23, [x22, #280]
.Ltmp177:
	//DEBUG_VALUE: ufs_mq_dump_request:ds_lld <- $x23
	.loc	1 671 6                 // kernel/block/mas_blk_iosched_ufs_mq.c:671:6
	cbz	x23, .LBB9_19
.Ltmp178:
// %bb.2:
	//DEBUG_VALUE: ufs_mq_dump_request:ds_lld <- $x23
	//DEBUG_VALUE: ufs_mq_dump_request:sched_ds <- $x22
	//DEBUG_VALUE: ufs_mq_dump_request:s <- $w1
	//DEBUG_VALUE: ufs_mq_dump_request:q <- $x0
	.loc	154 183 2 is_stmt 1     // kernel/include/linux/compiler.h:183:2
	mov	x24, x23
	ldr	x8, [x24, #72]!
	mov	x19, x0
.Ltmp179:
	//DEBUG_VALUE: ufs_mq_dump_request:q <- $x19
	.loc	154 0 2 is_stmt 0       // kernel/include/linux/compiler.h:0:2
	mov	w20, w1
.Ltmp180:
	//DEBUG_VALUE: ufs_mq_dump_request:s <- $w20
	//DEBUG_VALUE: __read_once_size:res <- undef
	//DEBUG_VALUE: __read_once_size:size <- 8
	//DEBUG_VALUE: list_empty:head <- undef
	//DEBUG_VALUE: __read_once_size:p <- undef
	.loc	1 675 6 is_stmt 1       // kernel/block/mas_blk_iosched_ufs_mq.c:675:6
	cmp	x24, x8
	b.eq	.LBB9_7
.Ltmp181:
// %bb.3:
	//DEBUG_VALUE: ufs_mq_dump_request:s <- $w20
	//DEBUG_VALUE: ufs_mq_dump_request:q <- $x19
	//DEBUG_VALUE: ufs_mq_dump_request:ds_lld <- $x23
	//DEBUG_VALUE: ufs_mq_dump_request:sched_ds <- $x22
	.loc	1 676 3                 // kernel/block/mas_blk_iosched_ufs_mq.c:676:3
	adrp	x0, .L.str
	add	x0, x0, :lo12:.L.str
	bl	printk
.Ltmp182:
	//DEBUG_VALUE: __mptr <- undef
	.loc	1 0 0 is_stmt 0         // kernel/block/mas_blk_iosched_ufs_mq.c:0:0
	ldr	x21, [x24]
.Ltmp183:
	//DEBUG_VALUE: ufs_mq_dump_request:pos <- $x21
	.loc	1 677 3 is_stmt 1       // kernel/block/mas_blk_iosched_ufs_mq.c:677:3
	cmp	x21, x24
	b.ne	.LBB9_5
	b	.LBB9_7
.Ltmp184:
.LBB9_4:                                //   in Loop: Header=BB9_5 Depth=1
	//DEBUG_VALUE: ufs_mq_dump_request:pos <- $x21
	//DEBUG_VALUE: ufs_mq_dump_request:s <- $w20
	//DEBUG_VALUE: ufs_mq_dump_request:q <- $x19
	//DEBUG_VALUE: ufs_mq_dump_request:ds_lld <- $x23
	//DEBUG_VALUE: ufs_mq_dump_request:sched_ds <- $x22
	//DEBUG_VALUE: __mptr <- undef
	.loc	1 0 0 is_stmt 0         // kernel/block/mas_blk_iosched_ufs_mq.c:0:0
	ldr	x21, [x21]
.Ltmp185:
	//DEBUG_VALUE: ufs_mq_dump_request:pos <- $x21
	.loc	1 677 3                 // kernel/block/mas_blk_iosched_ufs_mq.c:677:3
	cmp	x21, x24
	b.eq	.LBB9_7
.Ltmp186:
.LBB9_5:                                // =>This Inner Loop Header: Depth=1
	//DEBUG_VALUE: ufs_mq_dump_request:pos <- $x21
	//DEBUG_VALUE: ufs_mq_dump_request:s <- $w20
	//DEBUG_VALUE: ufs_mq_dump_request:q <- $x19
	//DEBUG_VALUE: ufs_mq_dump_request:ds_lld <- $x23
	//DEBUG_VALUE: ufs_mq_dump_request:sched_ds <- $x22
	.loc	1 678 13 is_stmt 1      // kernel/block/mas_blk_iosched_ufs_mq.c:678:13
	ldr	x8, [x21, #64]
.Ltmp187:
	.loc	1 678 8 is_stmt 0       // kernel/block/mas_blk_iosched_ufs_mq.c:678:8
	cmp	x8, x19
	b.ne	.LBB9_4
.Ltmp188:
// %bb.6:                               //   in Loop: Header=BB9_5 Depth=1
	//DEBUG_VALUE: ufs_mq_dump_request:pos <- $x21
	//DEBUG_VALUE: ufs_mq_dump_request:s <- $w20
	//DEBUG_VALUE: ufs_mq_dump_request:q <- $x19
	//DEBUG_VALUE: ufs_mq_dump_request:ds_lld <- $x23
	//DEBUG_VALUE: ufs_mq_dump_request:sched_ds <- $x22
	.loc	1 679 5 is_stmt 1       // kernel/block/mas_blk_iosched_ufs_mq.c:679:5
	mov	x0, x21
	mov	w1, w20
	bl	mas_blk_dump_request
	b	.LBB9_4
.Ltmp189:
.LBB9_7:
	//DEBUG_VALUE: ufs_mq_dump_request:s <- $w20
	//DEBUG_VALUE: ufs_mq_dump_request:q <- $x19
	//DEBUG_VALUE: ufs_mq_dump_request:ds_lld <- $x23
	//DEBUG_VALUE: ufs_mq_dump_request:sched_ds <- $x22
	//DEBUG_VALUE: __read_once_size:res <- undef
	//DEBUG_VALUE: __read_once_size:size <- 8
	//DEBUG_VALUE: list_empty:head <- undef
	//DEBUG_VALUE: __read_once_size:p <- undef
	.loc	154 183 2               // kernel/include/linux/compiler.h:183:2
	mov	x24, x23
	ldr	x8, [x24, #96]!
.Ltmp190:
	.loc	1 681 6                 // kernel/block/mas_blk_iosched_ufs_mq.c:681:6
	cmp	x24, x8
	b.eq	.LBB9_13
.Ltmp191:
// %bb.8:
	//DEBUG_VALUE: ufs_mq_dump_request:s <- $w20
	//DEBUG_VALUE: ufs_mq_dump_request:q <- $x19
	//DEBUG_VALUE: ufs_mq_dump_request:ds_lld <- $x23
	//DEBUG_VALUE: ufs_mq_dump_request:sched_ds <- $x22
	.loc	1 682 3                 // kernel/block/mas_blk_iosched_ufs_mq.c:682:3
	adrp	x0, .L.str.1
	add	x0, x0, :lo12:.L.str.1
	bl	printk
.Ltmp192:
	//DEBUG_VALUE: __mptr <- undef
	.loc	1 0 0 is_stmt 0         // kernel/block/mas_blk_iosched_ufs_mq.c:0:0
	ldr	x21, [x24]
.Ltmp193:
	//DEBUG_VALUE: ufs_mq_dump_request:pos <- $x21
	.loc	1 683 3 is_stmt 1       // kernel/block/mas_blk_iosched_ufs_mq.c:683:3
	cmp	x21, x24
	b.ne	.LBB9_10
	b	.LBB9_12
.Ltmp194:
.LBB9_9:                                //   in Loop: Header=BB9_10 Depth=1
	//DEBUG_VALUE: ufs_mq_dump_request:pos <- $x21
	//DEBUG_VALUE: ufs_mq_dump_request:s <- $w20
	//DEBUG_VALUE: ufs_mq_dump_request:q <- $x19
	//DEBUG_VALUE: ufs_mq_dump_request:ds_lld <- $x23
	//DEBUG_VALUE: ufs_mq_dump_request:sched_ds <- $x22
	//DEBUG_VALUE: __mptr <- undef
	.loc	1 0 0 is_stmt 0         // kernel/block/mas_blk_iosched_ufs_mq.c:0:0
	ldr	x21, [x21]
.Ltmp195:
	//DEBUG_VALUE: ufs_mq_dump_request:pos <- $x21
	.loc	1 683 3                 // kernel/block/mas_blk_iosched_ufs_mq.c:683:3
	cmp	x21, x24
	b.eq	.LBB9_12
.Ltmp196:
.LBB9_10:                               // =>This Inner Loop Header: Depth=1
	//DEBUG_VALUE: ufs_mq_dump_request:pos <- $x21
	//DEBUG_VALUE: ufs_mq_dump_request:s <- $w20
	//DEBUG_VALUE: ufs_mq_dump_request:q <- $x19
	//DEBUG_VALUE: ufs_mq_dump_request:ds_lld <- $x23
	//DEBUG_VALUE: ufs_mq_dump_request:sched_ds <- $x22
	.loc	1 684 13 is_stmt 1      // kernel/block/mas_blk_iosched_ufs_mq.c:684:13
	ldr	x8, [x21, #64]
.Ltmp197:
	.loc	1 684 8 is_stmt 0       // kernel/block/mas_blk_iosched_ufs_mq.c:684:8
	cmp	x8, x19
	b.ne	.LBB9_9
.Ltmp198:
// %bb.11:                              //   in Loop: Header=BB9_10 Depth=1
	//DEBUG_VALUE: ufs_mq_dump_request:pos <- $x21
	//DEBUG_VALUE: ufs_mq_dump_request:s <- $w20
	//DEBUG_VALUE: ufs_mq_dump_request:q <- $x19
	//DEBUG_VALUE: ufs_mq_dump_request:ds_lld <- $x23
	//DEBUG_VALUE: ufs_mq_dump_request:sched_ds <- $x22
	.loc	1 685 5 is_stmt 1       // kernel/block/mas_blk_iosched_ufs_mq.c:685:5
	mov	x0, x21
	mov	w1, w20
	bl	mas_blk_dump_request
	b	.LBB9_9
.Ltmp199:
.LBB9_12:
	//DEBUG_VALUE: ufs_mq_dump_request:pos <- $x21
	//DEBUG_VALUE: ufs_mq_dump_request:s <- $w20
	//DEBUG_VALUE: ufs_mq_dump_request:q <- $x19
	//DEBUG_VALUE: ufs_mq_dump_request:ds_lld <- $x23
	//DEBUG_VALUE: ufs_mq_dump_request:sched_ds <- $x22
	.loc	1 648 2                 // kernel/block/mas_blk_iosched_ufs_mq.c:648:2
	ldp	x1, x2, [x22, #8]
	ldr	x3, [x22, #24]
	adrp	x0, .L.str.9
	add	x0, x0, :lo12:.L.str.9
	bl	printk
.Ltmp200:
.LBB9_13:
	//DEBUG_VALUE: ufs_mq_dump_request:s <- $w20
	//DEBUG_VALUE: ufs_mq_dump_request:q <- $x19
	//DEBUG_VALUE: ufs_mq_dump_request:ds_lld <- $x23
	//DEBUG_VALUE: ufs_mq_dump_request:sched_ds <- $x22
	//DEBUG_VALUE: __read_once_size:res <- undef
	//DEBUG_VALUE: __read_once_size:size <- 8
	//DEBUG_VALUE: list_empty:head <- $x23
	//DEBUG_VALUE: __read_once_size:p <- $x23
	.loc	154 183 2               // kernel/include/linux/compiler.h:183:2
	ldr	x8, [x23, #152]!
.Ltmp201:
	.loc	1 689 6                 // kernel/block/mas_blk_iosched_ufs_mq.c:689:6
	cmp	x23, x8
	b.eq	.LBB9_19
.Ltmp202:
// %bb.14:
	//DEBUG_VALUE: ufs_mq_dump_request:s <- $w20
	//DEBUG_VALUE: ufs_mq_dump_request:q <- $x19
	//DEBUG_VALUE: ufs_mq_dump_request:sched_ds <- $x22
	.loc	1 690 3                 // kernel/block/mas_blk_iosched_ufs_mq.c:690:3
	adrp	x0, .L.str.2
	add	x0, x0, :lo12:.L.str.2
	bl	printk
.Ltmp203:
	//DEBUG_VALUE: __mptr <- undef
	.loc	1 0 0 is_stmt 0         // kernel/block/mas_blk_iosched_ufs_mq.c:0:0
	ldr	x21, [x23]
.Ltmp204:
	//DEBUG_VALUE: ufs_mq_dump_request:pos <- [DW_OP_constu 448, DW_OP_minus, DW_OP_stack_value] $x21
	.loc	1 698 3 is_stmt 1       // kernel/block/mas_blk_iosched_ufs_mq.c:698:3
	cmp	x23, x21
	b.ne	.LBB9_16
	b	.LBB9_18
.Ltmp205:
.LBB9_15:                               //   in Loop: Header=BB9_16 Depth=1
	//DEBUG_VALUE: ufs_mq_dump_request:pos <- $x21
	//DEBUG_VALUE: ufs_mq_dump_request:s <- $w20
	//DEBUG_VALUE: ufs_mq_dump_request:q <- $x19
	//DEBUG_VALUE: ufs_mq_dump_request:sched_ds <- $x22
	//DEBUG_VALUE: __mptr <- undef
	.loc	1 0 0 is_stmt 0         // kernel/block/mas_blk_iosched_ufs_mq.c:0:0
	ldr	x21, [x21]
.Ltmp206:
	//DEBUG_VALUE: ufs_mq_dump_request:pos <- [DW_OP_constu 448, DW_OP_minus, DW_OP_stack_value] $x21
	.loc	1 698 3                 // kernel/block/mas_blk_iosched_ufs_mq.c:698:3
	cmp	x23, x21
	b.eq	.LBB9_18
.Ltmp207:
.LBB9_16:                               // =>This Inner Loop Header: Depth=1
	//DEBUG_VALUE: ufs_mq_dump_request:pos <- $x21
	//DEBUG_VALUE: ufs_mq_dump_request:s <- $w20
	//DEBUG_VALUE: ufs_mq_dump_request:q <- $x19
	//DEBUG_VALUE: ufs_mq_dump_request:sched_ds <- $x22
	.loc	1 700 13 is_stmt 1      // kernel/block/mas_blk_iosched_ufs_mq.c:700:13
	sub	x8, x21, #384           // =384
	ldr	x8, [x8]
.Ltmp208:
	.loc	1 700 8 is_stmt 0       // kernel/block/mas_blk_iosched_ufs_mq.c:700:8
	cmp	x8, x19
	b.ne	.LBB9_15
.Ltmp209:
// %bb.17:                              //   in Loop: Header=BB9_16 Depth=1
	//DEBUG_VALUE: ufs_mq_dump_request:pos <- $x21
	//DEBUG_VALUE: ufs_mq_dump_request:s <- $w20
	//DEBUG_VALUE: ufs_mq_dump_request:q <- $x19
	//DEBUG_VALUE: ufs_mq_dump_request:sched_ds <- $x22
	.loc	1 0 0                   // kernel/block/mas_blk_iosched_ufs_mq.c:0:0
	sub	x0, x21, #448           // =448
.Ltmp210:
	.loc	1 701 5 is_stmt 1       // kernel/block/mas_blk_iosched_ufs_mq.c:701:5
	mov	w1, w20
	bl	mas_blk_dump_request
	b	.LBB9_15
.Ltmp211:
.LBB9_18:
	//DEBUG_VALUE: ufs_mq_dump_request:pos <- $x21
	//DEBUG_VALUE: ufs_mq_dump_request:s <- $w20
	//DEBUG_VALUE: ufs_mq_dump_request:q <- $x19
	//DEBUG_VALUE: ufs_mq_dump_request:sched_ds <- $x22
	.loc	1 648 2                 // kernel/block/mas_blk_iosched_ufs_mq.c:648:2
	ldp	x1, x2, [x22, #136]
	ldr	x3, [x22, #152]
	adrp	x0, .L.str.9
	add	x0, x0, :lo12:.L.str.9
	bl	printk
.Ltmp212:
.LBB9_19:
	//DEBUG_VALUE: ufs_mq_dump_request:sched_ds <- $x22
	.loc	1 704 1                 // kernel/block/mas_blk_iosched_ufs_mq.c:704:1
	ldp	x29, x30, [sp, #48]     // 16-byte Folded Reload
	ldp	x20, x19, [sp, #32]     // 16-byte Folded Reload
	ldp	x22, x21, [sp, #16]     // 16-byte Folded Reload
.Ltmp213:
	ldp	x24, x23, [sp], #64     // 16-byte Folded Reload
	ret
.Ltmp214:
.Lfunc_end9:
	.size	ufs_mq_dump_request, .Lfunc_end9-ufs_mq_dump_request
	.cfi_endproc
	.file	157 "/mnt/disk/jenkins/ci/workspace/chipset_pipeline_release/opensource/component_code/vendor/huawei/extra/build/build_script/kirin_kernel_release/kernel/include/linux/list.h"
                                        // -- End function
	.section	.text.ufs_mq_flush_plug_list,"ax",@progbits
	.hidden	ufs_mq_flush_plug_list  // -- Begin function ufs_mq_flush_plug_list
	.globl	ufs_mq_flush_plug_list
	.p2align	2
	.type	ufs_mq_flush_plug_list,@function
ufs_mq_flush_plug_list:                 // @ufs_mq_flush_plug_list
.Lfunc_begin10:
	.loc	1 1527 0                // kernel/block/mas_blk_iosched_ufs_mq.c:1527:0
	.cfi_startproc
// %bb.0:
	//DEBUG_VALUE: ufs_mq_flush_plug_list:plug <- $x0
	sub	sp, sp, #128            // =128
	stp	x26, x25, [sp, #48]     // 16-byte Folded Spill
	stp	x24, x23, [sp, #64]     // 16-byte Folded Spill
	stp	x22, x21, [sp, #80]     // 16-byte Folded Spill
	stp	x20, x19, [sp, #96]     // 16-byte Folded Spill
	stp	x29, x30, [sp, #112]    // 16-byte Folded Spill
	add	x29, sp, #112           // =112
	.cfi_def_cfa w29, 16
	.cfi_offset w30, -8
	.cfi_offset w29, -16
	.cfi_offset w19, -24
	.cfi_offset w20, -32
	.cfi_offset w21, -40
	.cfi_offset w22, -48
	.cfi_offset w23, -56
	.cfi_offset w24, -64
	.cfi_offset w25, -72
	.cfi_offset w26, -80
.Ltmp215:
	.loc	1 1532 27 prologue_end  // kernel/block/mas_blk_iosched_ufs_mq.c:1532:27
	adrp	x8, .L__const.ufs_mq_flush_plug_list.bd
	adrp	x9, __stack_chk_guard
	add	x8, x8, :lo12:.L__const.ufs_mq_flush_plug_list.bd
	ldr	x9, [x9, :lo12:__stack_chk_guard]
	//DEBUG_VALUE: ufs_mq_flush_plug_list:plug <- $x0
	ldp	x11, x10, [x8]
	add	x8, sp, #8              // =8
	str	x9, [sp, #40]
.Ltmp216:
	//DEBUG_VALUE: ufs_mq_flush_plug_list:hctx <- 0
	//DEBUG_VALUE: ufs_mq_flush_plug_list:q <- 0
	//DEBUG_VALUE: ufs_mq_flush_plug_list:rq <- 0
	//DEBUG_VALUE: ufs_mq_flush_plug_list:from_schedule <- undef
	stp	x11, x10, [sp, #24]
.Ltmp217:
	//DEBUG_VALUE: ufs_mq_flush_plug_list:sched_ds <- 0
	.loc	1 1537 2                // kernel/block/mas_blk_iosched_ufs_mq.c:1537:2
	stp	x8, x8, [sp, #8]
.Ltmp218:
	//DEBUG_VALUE: __read_once_size:p <- undef
	//DEBUG_VALUE: __write_once_size:p <- undef
	//DEBUG_VALUE: list_splice_init:list <- undef
	//DEBUG_VALUE: list_empty:head <- undef
	//DEBUG_VALUE: __list_splice:list <- undef
	//DEBUG_VALUE: INIT_LIST_HEAD:list <- undef
	//DEBUG_VALUE: __read_once_size:res <- undef
	//DEBUG_VALUE: ufs_mq_flush_plug_list:list <- [DW_OP_plus_uconst 8, DW_OP_deref] $sp
	//DEBUG_VALUE: __read_once_size:size <- 8
	//DEBUG_VALUE: list_splice_init:head <- [DW_OP_plus_uconst 8] $sp
	.loc	154 183 2               // kernel/include/linux/compiler.h:183:2
	mov	x9, x0
	ldr	x10, [x9, #48]!
.Ltmp219:
	//DEBUG_VALUE: __list_splice:first <- $x10
	.loc	157 366 6               // kernel/include/linux/list.h:366:6
	cmp	x9, x10
	b.eq	.LBB10_2
.Ltmp220:
// %bb.1:
	//DEBUG_VALUE: __list_splice:first <- $x10
	//DEBUG_VALUE: list_splice_init:head <- [DW_OP_plus_uconst 8] $sp
	//DEBUG_VALUE: ufs_mq_flush_plug_list:list <- [DW_OP_plus_uconst 8, DW_OP_deref] $sp
	//DEBUG_VALUE: ufs_mq_flush_plug_list:plug <- $x0
	//DEBUG_VALUE: __list_splice:prev <- [DW_OP_plus_uconst 8] $sp
	//DEBUG_VALUE: __list_splice:next <- [DW_OP_plus_uconst 8] $sp
	.loc	157 323 33              // kernel/include/linux/list.h:323:33
	ldr	x11, [x0, #56]
.Ltmp221:
	//DEBUG_VALUE: __list_splice:last <- $x11
	.loc	157 325 14              // kernel/include/linux/list.h:325:14
	str	x8, [x10, #8]
	.loc	157 326 13              // kernel/include/linux/list.h:326:13
	str	x10, [sp, #8]
	.loc	157 328 13              // kernel/include/linux/list.h:328:13
	str	x8, [x11]
	.loc	157 329 13              // kernel/include/linux/list.h:329:13
	str	x11, [sp, #16]
.Ltmp222:
	//DEBUG_VALUE: __write_once_size:size <- 8
	//DEBUG_VALUE: __write_once_size:res <- undef
	.loc	154 210 31              // kernel/include/linux/compiler.h:210:31
	str	x9, [x0, #48]
.Ltmp223:
	.loc	157 29 13               // kernel/include/linux/list.h:29:13
	str	x9, [x0, #56]
.Ltmp224:
	.loc	1 1541 8                // kernel/block/mas_blk_iosched_ufs_mq.c:1541:8
	ldr	x19, [sp, #8]
	b	.LBB10_3
.Ltmp225:
.LBB10_2:
	//DEBUG_VALUE: __list_splice:first <- $x10
	//DEBUG_VALUE: list_splice_init:head <- [DW_OP_plus_uconst 8] $sp
	//DEBUG_VALUE: ufs_mq_flush_plug_list:list <- [DW_OP_plus_uconst 8, DW_OP_deref] $sp
	//DEBUG_VALUE: ufs_mq_flush_plug_list:plug <- $x0
	.loc	1 0 8 is_stmt 0         // kernel/block/mas_blk_iosched_ufs_mq.c:0:8
	add	x19, sp, #8             // =8
.Ltmp226:
.LBB10_3:
	//DEBUG_VALUE: ufs_mq_flush_plug_list:list <- [DW_OP_plus_uconst 8, DW_OP_deref] $sp
	//DEBUG_VALUE: ufs_mq_flush_plug_list:plug <- $x0
	adrp	x23, cpu_number
	adrp	x24, __per_cpu_offset
	add	x23, x23, :lo12:cpu_number
	add	x24, x24, :lo12:__per_cpu_offset
	add	x25, sp, #8             // =8
	adrp	x26, mas_blk_mq_sync_disp_wq
.Ltmp227:
	.file	158 "/mnt/disk/jenkins/ci/workspace/chipset_pipeline_release/opensource/component_code/vendor/huawei/extra/build/build_script/kirin_kernel_release/kernel/arch/arm64/include/asm/current.h"
	.loc	158 19 2 is_stmt 1      // kernel/arch/arm64/include/asm/current.h:19:2
	//APP
	mrs x22, sp_el0
	//NO_APP
.Ltmp228:
	//DEBUG_VALUE: get_current:sp_el0 <- $x22
	//DEBUG_VALUE: get_current:sp_el0 <- $x22
	//DEBUG_VALUE: get_current:sp_el0 <- $x22
	//DEBUG_VALUE: test_ti_thread_flag:ti <- $x22
	//DEBUG_VALUE: test_bit:addr <- $x22
	.loc	158 0 2 is_stmt 0       // kernel/arch/arm64/include/asm/current.h:0:2
	//APP
	//NO_APP
	b	.LBB10_8
.Ltmp229:
.LBB10_4:                               //   in Loop: Header=BB10_8 Depth=1
	//DEBUG_VALUE: ufs_mq_flush_plug_list:ret <- $w21
	//DEBUG_VALUE: ufs_mq_flush_plug_list:bd <- [DW_OP_plus_uconst 24, DW_OP_deref] $sp
	//DEBUG_VALUE: ufs_mq_flush_plug_list:q <- $x20
	//DEBUG_VALUE: ufs_mq_flush_plug_list:rq <- $x19
	//DEBUG_VALUE: ufs_mq_flush_plug_list:list <- [DW_OP_plus_uconst 8, DW_OP_deref] $sp
	.loc	9 119 3 is_stmt 1       // kernel/block/blk-mq.h:119:3
	bl	preempt_schedule
.Ltmp230:
	.loc	1 1552 7                // kernel/block/mas_blk_iosched_ufs_mq.c:1552:7
	cbz	w21, .LBB10_14
.Ltmp231:
.LBB10_5:                               //   in Loop: Header=BB10_8 Depth=1
	//DEBUG_VALUE: ufs_mq_flush_plug_list:ret <- $w21
	//DEBUG_VALUE: ufs_mq_flush_plug_list:bd <- [DW_OP_plus_uconst 24, DW_OP_deref] $sp
	//DEBUG_VALUE: ufs_mq_flush_plug_list:q <- $x20
	//DEBUG_VALUE: ufs_mq_flush_plug_list:rq <- $x19
	//DEBUG_VALUE: ufs_mq_flush_plug_list:list <- [DW_OP_plus_uconst 8, DW_OP_deref] $sp
	cmp	w21, #9                 // =9
	b.ne	.LBB10_7
.Ltmp232:
// %bb.6:                               //   in Loop: Header=BB10_8 Depth=1
	//DEBUG_VALUE: ufs_mq_flush_plug_list:ret <- $w21
	//DEBUG_VALUE: ufs_mq_flush_plug_list:bd <- [DW_OP_plus_uconst 24, DW_OP_deref] $sp
	//DEBUG_VALUE: ufs_mq_flush_plug_list:q <- $x20
	//DEBUG_VALUE: ufs_mq_flush_plug_list:rq <- $x19
	//DEBUG_VALUE: ufs_mq_flush_plug_list:list <- [DW_OP_plus_uconst 8, DW_OP_deref] $sp
	.loc	1 1554 5                // kernel/block/mas_blk_iosched_ufs_mq.c:1554:5
	mov	x0, x19
	bl	__blk_mq_requeue_request
	.loc	1 1555 5                // kernel/block/mas_blk_iosched_ufs_mq.c:1555:5
	mov	x0, x19
	mov	x1, x20
	bl	ufs_mq_insert_sync_list
.Ltmp233:
	//DEBUG_VALUE: ufs_mq_run_delay_sync_list:delay_jiffies <- 0
	.loc	1 1276 44               // kernel/block/mas_blk_iosched_ufs_mq.c:1276:44
	ldr	x19, [x20, #1800]
.Ltmp234:
	//DEBUG_VALUE: ufs_mq_run_delay_sync_list:sched_ds <- $x19
	.loc	1 1278 21               // kernel/block/mas_blk_iosched_ufs_mq.c:1278:21
	ldr	x1, [x26, :lo12:mas_blk_mq_sync_disp_wq]
.Ltmp235:
	.loc	77 506 9                // kernel/include/linux/workqueue.h:506:9
	orr	w0, wzr, #0x8
	mov	x3, xzr
.Ltmp236:
	.loc	1 1279 33               // kernel/block/mas_blk_iosched_ufs_mq.c:1279:33
	add	x2, x19, #32            // =32
.Ltmp237:
	//DEBUG_VALUE: queue_delayed_work:delay <- 0
	//DEBUG_VALUE: queue_delayed_work:dwork <- $x2
	//DEBUG_VALUE: queue_delayed_work:wq <- $x1
	.loc	77 506 9                // kernel/include/linux/workqueue.h:506:9
	bl	queue_delayed_work_on
.Ltmp238:
	.loc	1 1280 47               // kernel/block/mas_blk_iosched_ufs_mq.c:1280:47
	bl	ktime_get
	.loc	1 1280 45 is_stmt 0     // kernel/block/mas_blk_iosched_ufs_mq.c:1280:45
	str	x0, [x19, #8]
	b	.LBB10_14
.Ltmp239:
.LBB10_7:                               //   in Loop: Header=BB10_8 Depth=1
	//DEBUG_VALUE: ufs_mq_flush_plug_list:ret <- $w21
	//DEBUG_VALUE: ufs_mq_flush_plug_list:bd <- [DW_OP_plus_uconst 24, DW_OP_deref] $sp
	//DEBUG_VALUE: ufs_mq_flush_plug_list:q <- $x20
	//DEBUG_VALUE: ufs_mq_flush_plug_list:rq <- $x19
	//DEBUG_VALUE: ufs_mq_flush_plug_list:list <- [DW_OP_plus_uconst 8, DW_OP_deref] $sp
	.loc	1 1558 5 is_stmt 1      // kernel/block/mas_blk_iosched_ufs_mq.c:1558:5
	mov	w1, #10
	mov	x0, x19
	bl	blk_mq_end_request
	b	.LBB10_14
.Ltmp240:
.LBB10_8:                               // =>This Inner Loop Header: Depth=1
	//DEBUG_VALUE: ufs_mq_flush_plug_list:list <- [DW_OP_plus_uconst 8, DW_OP_deref] $sp
	//DEBUG_VALUE: ufs_mq_flush_plug_list:plug <- $x0
	//DEBUG_VALUE: ufs_mq_flush_plug_list:rq <- $x19
	//DEBUG_VALUE: __mptr <- undef
	.loc	1 1542 11               // kernel/block/mas_blk_iosched_ufs_mq.c:1542:11
	ldr	x20, [x19, #64]
.Ltmp241:
	//DEBUG_VALUE: ufs_mq_run_delay_sync_list:q <- $x20
	//DEBUG_VALUE: ufs_mq_flush_plug_list:q <- $x20
	.loc	157 120 33              // kernel/include/linux/list.h:120:33
	ldp	x8, x9, [x19]
.Ltmp242:
	.loc	1 1549 9                // kernel/block/mas_blk_iosched_ufs_mq.c:1549:9
	add	x3, sp, #24             // =24
	mov	x0, x19
.Ltmp243:
	.loc	1 1544 14               // kernel/block/mas_blk_iosched_ufs_mq.c:1544:14
	ldr	x10, [x20, #1800]
.Ltmp244:
	//DEBUG_VALUE: __list_del_entry:entry <- $x19
	//DEBUG_VALUE: list_del_init:entry <- $x19
	//DEBUG_VALUE: __list_del:prev <- $x9
	//DEBUG_VALUE: __list_del:next <- $x8
	//DEBUG_VALUE: ufs_mq_flush_plug_list:sched_ds <- $x10
	.loc	157 105 13              // kernel/include/linux/list.h:105:13
	str	x9, [x8, #8]
.Ltmp245:
	//DEBUG_VALUE: __write_once_size:p <- $x9
	//DEBUG_VALUE: __write_once_size:size <- 8
	//DEBUG_VALUE: __write_once_size:res <- undef
	.loc	154 210 31              // kernel/include/linux/compiler.h:210:31
	str	x8, [x9]
.Ltmp246:
	//DEBUG_VALUE: __write_once_size:p <- $x19
	//DEBUG_VALUE: __write_once_size:size <- 8
	//DEBUG_VALUE: __write_once_size:res <- undef
	//DEBUG_VALUE: INIT_LIST_HEAD:list <- $x19
	.loc	154 210 31 is_stmt 0    // kernel/include/linux/compiler.h:210:31
	str	x19, [x19]
.Ltmp247:
	.loc	157 29 13 is_stmt 1     // kernel/include/linux/list.h:29:13
	str	x19, [x19, #8]
.Ltmp248:
	.loc	1 1546 9                // kernel/block/mas_blk_iosched_ufs_mq.c:1546:9
	str	x19, [sp, #24]
.Ltmp249:
	//DEBUG_VALUE: __preempt_count_add:val <- 1
	//DEBUG_VALUE: blk_mq_get_ctx:q <- $x20
	.file	159 "/mnt/disk/jenkins/ci/workspace/chipset_pipeline_release/opensource/component_code/vendor/huawei/extra/build/build_script/kirin_kernel_release/kernel/include/asm-generic/preempt.h"
	.loc	159 54 23               // kernel/include/asm-generic/preempt.h:54:23
	ldr	w8, [x22, #24]
.Ltmp250:
	.loc	1 1549 9                // kernel/block/mas_blk_iosched_ufs_mq.c:1549:9
	mov	x4, x20
.Ltmp251:
	.loc	159 54 23               // kernel/include/asm-generic/preempt.h:54:23
	add	w8, w8, #1              // =1
	str	w8, [x22, #24]
.Ltmp252:
	.loc	9 109 29                // kernel/block/blk-mq.h:109:29
	//APP
	//NO_APP
.Ltmp253:
	//DEBUG_VALUE: __ptr <- $x23
	.file	160 "/mnt/disk/jenkins/ci/workspace/chipset_pipeline_release/opensource/component_code/vendor/huawei/extra/build/build_script/kirin_kernel_release/kernel/arch/arm64/include/asm/percpu.h"
	.loc	160 38 2                // kernel/arch/arm64/include/asm/percpu.h:38:2
	//APP
	.if 1 == 1
661:
	mrs x8, tpidr_el1
662:
.pushsection .altinstructions,"a"
 .word 661b - .
 .if 0 == 0
 .word 663f - .
 .else
 .word 0- .
 .endif
 .hword 11
 .byte 662b-661b
 .byte 664f-663f
.popsection
 .if 0 == 0
.pushsection .altinstr_replacement, "a"
663:
	mrs x8, tpidr_el2
664:
	.popsection
	.org	. - (664b-663b) + (662b-661b)
	.org	. - (662b-661b) + (664b-663b)
.else
	663:
	664:
	.endif
.endif

	//NO_APP
.Ltmp254:
	//DEBUG_VALUE: __my_cpu_offset:off <- $x8
	.loc	9 109 29                // kernel/block/blk-mq.h:109:29
	ldr	w8, [x8, x23]
.Ltmp255:
	//DEBUG_VALUE: __blk_mq_get_ctx:cpu <- undef
	//DEBUG_VALUE: __blk_mq_get_ctx:q <- $x20
	.loc	9 98 9                  // kernel/block/blk-mq.h:98:9
	ldr	x9, [x20, #328]
.Ltmp256:
	//APP
	//NO_APP
.Ltmp257:
	//DEBUG_VALUE: __ptr <- $x9
	ldr	x8, [x24, x8, lsl #3]
	add	x8, x8, x9
.Ltmp258:
	.loc	1 1547 14               // kernel/block/mas_blk_iosched_ufs_mq.c:1547:14
	str	x8, [x19, #72]
	.loc	1 1548 47               // kernel/block/mas_blk_iosched_ufs_mq.c:1548:47
	ldrsw	x8, [x8, #64]
.Ltmp259:
	//DEBUG_VALUE: blk_mq_map_queue:cpu <- undef
	//DEBUG_VALUE: blk_mq_map_queue:q <- $x20
	.loc	9 78 28                 // kernel/block/blk-mq.h:78:28
	ldr	x9, [x20, #320]
.Ltmp260:
	.loc	9 78 12 is_stmt 0       // kernel/block/blk-mq.h:78:12
	ldr	x11, [x20, #344]
.Ltmp261:
	.loc	1 1550 24 is_stmt 1     // kernel/block/mas_blk_iosched_ufs_mq.c:1550:24
	ldr	x2, [x10, #280]
.Ltmp262:
	//DEBUG_VALUE: ufs_mq_flush_plug_list:bd <- [DW_OP_plus_uconst 24, DW_OP_deref] $sp
	.loc	9 78 25                 // kernel/block/blk-mq.h:78:25
	ldr	w8, [x9, x8, lsl #2]
	.loc	9 78 9 is_stmt 0        // kernel/block/blk-mq.h:78:9
	ldr	x1, [x11, x8, lsl #3]
.Ltmp263:
	//DEBUG_VALUE: ufs_mq_flush_plug_list:hctx <- $x1
	.loc	1 1549 9 is_stmt 1      // kernel/block/mas_blk_iosched_ufs_mq.c:1549:9
	bl	__ufs_mq_queue_rq
.Ltmp264:
	.loc	1 1551 22               // kernel/block/mas_blk_iosched_ufs_mq.c:1551:22
	ldr	x8, [x19, #72]
.Ltmp265:
	//DEBUG_VALUE: blk_mq_put_ctx:ctx <- $x8
	.loc	1 1549 9                // kernel/block/mas_blk_iosched_ufs_mq.c:1549:9
	mov	w21, w0
.Ltmp266:
	//DEBUG_VALUE: ufs_mq_flush_plug_list:ret <- $w21
	.loc	9 115 11                // kernel/block/blk-mq.h:115:11
	ldr	x8, [x8, #144]
.Ltmp267:
	.loc	9 115 18 is_stmt 0      // kernel/block/blk-mq.h:115:18
	ldr	x8, [x8, #1808]
	.loc	9 115 32                // kernel/block/blk-mq.h:115:32
	cbz	x8, .LBB10_11
.Ltmp268:
// %bb.9:                               //   in Loop: Header=BB10_8 Depth=1
	//DEBUG_VALUE: ufs_mq_flush_plug_list:ret <- $w21
	//DEBUG_VALUE: ufs_mq_flush_plug_list:bd <- [DW_OP_plus_uconst 24, DW_OP_deref] $sp
	//DEBUG_VALUE: ufs_mq_flush_plug_list:q <- $x20
	//DEBUG_VALUE: ufs_mq_flush_plug_list:rq <- $x19
	//DEBUG_VALUE: ufs_mq_flush_plug_list:list <- [DW_OP_plus_uconst 8, DW_OP_deref] $sp
	.loc	9 115 62                // kernel/block/blk-mq.h:115:62
	ldr	x8, [x8, #80]
.Ltmp269:
	.loc	9 115 6                 // kernel/block/blk-mq.h:115:6
	cbz	x8, .LBB10_11
.Ltmp270:
// %bb.10:                              //   in Loop: Header=BB10_8 Depth=1
	//DEBUG_VALUE: ufs_mq_flush_plug_list:ret <- $w21
	//DEBUG_VALUE: ufs_mq_flush_plug_list:bd <- [DW_OP_plus_uconst 24, DW_OP_deref] $sp
	//DEBUG_VALUE: ufs_mq_flush_plug_list:q <- $x20
	//DEBUG_VALUE: ufs_mq_flush_plug_list:rq <- $x19
	//DEBUG_VALUE: ufs_mq_flush_plug_list:list <- [DW_OP_plus_uconst 8, DW_OP_deref] $sp
	.loc	9 116 3 is_stmt 1       // kernel/block/blk-mq.h:116:3
	blr	x8
	cbz	w21, .LBB10_14
	b	.LBB10_5
.Ltmp271:
.LBB10_11:                              //   in Loop: Header=BB10_8 Depth=1
	//DEBUG_VALUE: ufs_mq_flush_plug_list:ret <- $w21
	//DEBUG_VALUE: ufs_mq_flush_plug_list:bd <- [DW_OP_plus_uconst 24, DW_OP_deref] $sp
	//DEBUG_VALUE: ufs_mq_flush_plug_list:q <- $x20
	//DEBUG_VALUE: ufs_mq_flush_plug_list:rq <- $x19
	//DEBUG_VALUE: ufs_mq_flush_plug_list:list <- [DW_OP_plus_uconst 8, DW_OP_deref] $sp
	.loc	9 119 3                 // kernel/block/blk-mq.h:119:3
	//APP
	//NO_APP
.Ltmp272:
	.loc	159 69 10               // kernel/include/asm-generic/preempt.h:69:10
	ldr	w8, [x22, #24]
	subs	w8, w8, #1              // =1
	str	w8, [x22, #24]
	.loc	159 69 33 is_stmt 0     // kernel/include/asm-generic/preempt.h:69:33
	b.ne	.LBB10_13
.Ltmp273:
// %bb.12:                              //   in Loop: Header=BB10_8 Depth=1
	//DEBUG_VALUE: ufs_mq_flush_plug_list:ret <- $w21
	//DEBUG_VALUE: ufs_mq_flush_plug_list:bd <- [DW_OP_plus_uconst 24, DW_OP_deref] $sp
	//DEBUG_VALUE: ufs_mq_flush_plug_list:q <- $x20
	//DEBUG_VALUE: ufs_mq_flush_plug_list:rq <- $x19
	//DEBUG_VALUE: ufs_mq_flush_plug_list:list <- [DW_OP_plus_uconst 8, DW_OP_deref] $sp
	//DEBUG_VALUE: test_ti_thread_flag:flag <- 1
	//DEBUG_VALUE: test_bit:nr <- 1
	.file	161 "/mnt/disk/jenkins/ci/workspace/chipset_pipeline_release/opensource/component_code/vendor/huawei/extra/build/build_script/kirin_kernel_release/kernel/include/asm-generic/bitops/non-atomic.h"
	.loc	161 106 16 is_stmt 1    // kernel/include/asm-generic/bitops/non-atomic.h:106:16
	ldr	x8, [x22]
.Ltmp274:
	.loc	9 119 3                 // kernel/block/blk-mq.h:119:3
	tbnz	w8, #1, .LBB10_4
.Ltmp275:
.LBB10_13:                              //   in Loop: Header=BB10_8 Depth=1
	//DEBUG_VALUE: ufs_mq_flush_plug_list:ret <- $w21
	//DEBUG_VALUE: ufs_mq_flush_plug_list:bd <- [DW_OP_plus_uconst 24, DW_OP_deref] $sp
	//DEBUG_VALUE: ufs_mq_flush_plug_list:q <- $x20
	//DEBUG_VALUE: ufs_mq_flush_plug_list:rq <- $x19
	//DEBUG_VALUE: ufs_mq_flush_plug_list:list <- [DW_OP_plus_uconst 8, DW_OP_deref] $sp
	.loc	1 1552 7                // kernel/block/mas_blk_iosched_ufs_mq.c:1552:7
	cbnz	w21, .LBB10_5
.Ltmp276:
.LBB10_14:                              //   in Loop: Header=BB10_8 Depth=1
	//DEBUG_VALUE: ufs_mq_flush_plug_list:ret <- $w21
	//DEBUG_VALUE: ufs_mq_flush_plug_list:bd <- [DW_OP_plus_uconst 24, DW_OP_deref] $sp
	//DEBUG_VALUE: ufs_mq_flush_plug_list:q <- $x20
	//DEBUG_VALUE: ufs_mq_flush_plug_list:list <- [DW_OP_plus_uconst 8, DW_OP_deref] $sp
	//DEBUG_VALUE: ufs_mq_flush_plug_list:list <- [DW_OP_plus_uconst 8, DW_OP_deref] $sp
	//DEBUG_VALUE: list_empty:head <- [DW_OP_plus_uconst 8] $sp
	//DEBUG_VALUE: __read_once_size:res <- undef
	//DEBUG_VALUE: __read_once_size:size <- 8
	//DEBUG_VALUE: __read_once_size:p <- [DW_OP_plus_uconst 8] $sp
	.loc	154 183 2               // kernel/include/linux/compiler.h:183:2
	ldr	x19, [sp, #8]
.Ltmp277:
	.loc	1 1561 2                // kernel/block/mas_blk_iosched_ufs_mq.c:1561:2
	cmp	x25, x19
	b.ne	.LBB10_8
.Ltmp278:
// %bb.15:
	//DEBUG_VALUE: __read_once_size:p <- [DW_OP_plus_uconst 8] $sp
	//DEBUG_VALUE: list_empty:head <- [DW_OP_plus_uconst 8] $sp
	//DEBUG_VALUE: ufs_mq_flush_plug_list:ret <- $w21
	//DEBUG_VALUE: ufs_mq_flush_plug_list:bd <- [DW_OP_plus_uconst 24, DW_OP_deref] $sp
	//DEBUG_VALUE: ufs_mq_flush_plug_list:q <- $x20
	//DEBUG_VALUE: ufs_mq_flush_plug_list:list <- [DW_OP_plus_uconst 8, DW_OP_deref] $sp
	.loc	1 0 2 is_stmt 0         // kernel/block/mas_blk_iosched_ufs_mq.c:0:2
	adrp	x9, __stack_chk_guard
	ldr	x8, [sp, #40]
	ldr	x9, [x9, :lo12:__stack_chk_guard]
	cmp	x9, x8
	b.ne	.LBB10_17
.Ltmp279:
// %bb.16:
	//DEBUG_VALUE: ufs_mq_flush_plug_list:ret <- $w21
	//DEBUG_VALUE: ufs_mq_flush_plug_list:bd <- [DW_OP_plus_uconst 24, DW_OP_deref] $sp
	//DEBUG_VALUE: ufs_mq_flush_plug_list:q <- $x20
	//DEBUG_VALUE: ufs_mq_flush_plug_list:list <- [DW_OP_plus_uconst 8, DW_OP_deref] $sp
	.loc	1 1562 1 is_stmt 1      // kernel/block/mas_blk_iosched_ufs_mq.c:1562:1
	ldp	x29, x30, [sp, #112]    // 16-byte Folded Reload
	ldp	x20, x19, [sp, #96]     // 16-byte Folded Reload
.Ltmp280:
	ldp	x22, x21, [sp, #80]     // 16-byte Folded Reload
.Ltmp281:
	ldp	x24, x23, [sp, #64]     // 16-byte Folded Reload
	ldp	x26, x25, [sp, #48]     // 16-byte Folded Reload
	add	sp, sp, #128            // =128
.Ltmp282:
	ret
.Ltmp283:
.LBB10_17:
	//DEBUG_VALUE: __read_once_size:p <- [DW_OP_plus_uconst 8] $sp
	//DEBUG_VALUE: list_empty:head <- [DW_OP_plus_uconst 8] $sp
	//DEBUG_VALUE: ufs_mq_flush_plug_list:ret <- $w21
	//DEBUG_VALUE: ufs_mq_flush_plug_list:bd <- [DW_OP_plus_uconst 24, DW_OP_deref] $sp
	//DEBUG_VALUE: ufs_mq_flush_plug_list:q <- $x20
	//DEBUG_VALUE: ufs_mq_flush_plug_list:list <- [DW_OP_plus_uconst 8, DW_OP_deref] $sp
	.loc	1 0 1 is_stmt 0         // kernel/block/mas_blk_iosched_ufs_mq.c:0:1
	bl	__stack_chk_fail
.Lfunc_end10:
	.size	ufs_mq_flush_plug_list, .Lfunc_end10-ufs_mq_flush_plug_list
	.cfi_endproc
	.file	162 "/mnt/disk/jenkins/ci/workspace/chipset_pipeline_release/opensource/component_code/vendor/huawei/extra/build/build_script/kirin_kernel_release/kernel/include/linux/thread_info.h"
                                        // -- End function
	.section	.text.__ufs_mq_queue_rq,"ax",@progbits
	.p2align	2               // -- Begin function __ufs_mq_queue_rq
	.type	__ufs_mq_queue_rq,@function
__ufs_mq_queue_rq:                      // @__ufs_mq_queue_rq
.Lfunc_begin11:
	.loc	1 1226 0 is_stmt 1      // kernel/block/mas_blk_iosched_ufs_mq.c:1226:0
	.cfi_startproc
// %bb.0:
	//DEBUG_VALUE: __ufs_mq_queue_rq:rq <- $x0
	//DEBUG_VALUE: __ufs_mq_queue_rq:hctx <- $x1
	//DEBUG_VALUE: __ufs_mq_queue_rq:ds_lld <- $x2
	//DEBUG_VALUE: __ufs_mq_queue_rq:bd <- $x3
	//DEBUG_VALUE: __ufs_mq_queue_rq:q <- $x4
	stp	x22, x21, [sp, #-48]!   // 16-byte Folded Spill
	stp	x20, x19, [sp, #16]     // 16-byte Folded Spill
	stp	x29, x30, [sp, #32]     // 16-byte Folded Spill
	add	x29, sp, #32            // =32
	.cfi_def_cfa w29, 16
	.cfi_offset w30, -8
	.cfi_offset w29, -16
	.cfi_offset w19, -24
	.cfi_offset w20, -32
	.cfi_offset w21, -40
	.cfi_offset w22, -48
.Ltmp284:
	.loc	1 1041 6 prologue_end   // kernel/block/mas_blk_iosched_ufs_mq.c:1041:6
	ldr	w8, [x0, #84]
	mov	w22, #4096
	mov	x21, x3
	mov	x19, x2
	mov	x20, x0
	//DEBUG_VALUE: __ufs_mq_queue_rq:q <- $x4
.Ltmp285:
	//DEBUG_VALUE: __ufs_mq_queue_rq:bd <- $x21
	//DEBUG_VALUE: __ufs_mq_queue_rq:ds_lld <- $x19
	//DEBUG_VALUE: __ufs_mq_queue_rq:hctx <- $x1
	//DEBUG_VALUE: __ufs_mq_queue_rq:rq <- $x20
	.loc	1 0 6 is_stmt 0         // kernel/block/mas_blk_iosched_ufs_mq.c:0:6
	movk	w22, #64, lsl #16
.Ltmp286:
	//DEBUG_VALUE: ufs_mq_fs_io_limit:ds_lld <- undef
	//DEBUG_VALUE: ufs_mq_fs_io_limit:rq <- $x20
	.loc	1 1041 6                // kernel/block/mas_blk_iosched_ufs_mq.c:1041:6
	tbz	w8, #11, .LBB11_6
.Ltmp287:
// %bb.1:
	//DEBUG_VALUE: ufs_mq_fs_io_limit:rq <- $x20
	//DEBUG_VALUE: __ufs_mq_queue_rq:rq <- $x20
	//DEBUG_VALUE: __ufs_mq_queue_rq:ds_lld <- $x19
	//DEBUG_VALUE: __ufs_mq_queue_rq:bd <- $x21
	//DEBUG_VALUE: __ufs_mq_queue_rq:q <- $x4
	//DEBUG_VALUE: __ufs_mq_queue_rq:hctx <- $x1
	//DEBUG_VALUE: ufs_mq_sync_io_limit:rq <- $x20
	//DEBUG_VALUE: ufs_mq_sync_io_limit:ds_lld <- $x19
	//DEBUG_VALUE: ufs_mq_sync_io_limit:ret <- 0
	.loc	1 943 6 is_stmt 1       // kernel/block/mas_blk_iosched_ufs_mq.c:943:6
	tst	w8, w22
.Ltmp288:
	.loc	1 943 6 is_stmt 0       // kernel/block/mas_blk_iosched_ufs_mq.c:943:6
	b.ne	.LBB11_9
.Ltmp289:
// %bb.2:
	//DEBUG_VALUE: ufs_mq_sync_io_limit:ds_lld <- $x19
	//DEBUG_VALUE: ufs_mq_sync_io_limit:rq <- $x20
	//DEBUG_VALUE: ufs_mq_fs_io_limit:rq <- $x20
	//DEBUG_VALUE: __ufs_mq_queue_rq:rq <- $x20
	//DEBUG_VALUE: __ufs_mq_queue_rq:ds_lld <- $x19
	//DEBUG_VALUE: __ufs_mq_queue_rq:bd <- $x21
	//DEBUG_VALUE: __ufs_mq_queue_rq:q <- $x4
	//DEBUG_VALUE: __ufs_mq_queue_rq:hctx <- $x1
	//DEBUG_VALUE: atomic_add_return:i <- 1
	//DEBUG_VALUE: atomic_add_return:v <- [DW_OP_plus_uconst 32, DW_OP_stack_value] $x19
	.loc	153 113 1 is_stmt 1     // kernel/arch/arm64/include/asm/atomic_ll_sc.h:113:1
	add	x8, x19, #32            // =32
	//APP
	// atomic_add_return
	prfm	pstl1strm, [x8]
1:	ldxr	w9, [x8]
	add	w9, w9, #1
	stlxr	w10, w9, [x8]
	cbnz	w10, 1b
	dmb ish
	//NO_APP
.Ltmp290:
	//DEBUG_VALUE: atomic_add_return:tmp <- undef
	//DEBUG_VALUE: atomic_add_return:result <- $w9
	.loc	1 960 6                 // kernel/block/mas_blk_iosched_ufs_mq.c:960:6
	ldr	w8, [x19, #172]
.Ltmp291:
	.loc	1 0 0 is_stmt 0         // kernel/block/mas_blk_iosched_ufs_mq.c:0:0
	cmp	w9, w8
	b.le	.LBB11_4
.Ltmp292:
.LBB11_3:
	//DEBUG_VALUE: ufs_mq_fs_io_limit:rq <- $x20
	//DEBUG_VALUE: __ufs_mq_queue_rq:rq <- $x20
	//DEBUG_VALUE: __ufs_mq_queue_rq:ds_lld <- $x19
	//DEBUG_VALUE: __ufs_mq_queue_rq:bd <- $x21
	//DEBUG_VALUE: __ufs_mq_queue_rq:q <- $x4
	//DEBUG_VALUE: __ufs_mq_queue_rq:hctx <- $x1
	ldrb	w8, [x19, #504]
	cmp	w8, #1                  // =1
	b.ne	.LBB11_12
.Ltmp293:
.LBB11_4:
	//DEBUG_VALUE: __ufs_mq_queue_rq:rq <- $x20
	//DEBUG_VALUE: __ufs_mq_queue_rq:ds_lld <- $x19
	//DEBUG_VALUE: __ufs_mq_queue_rq:bd <- $x21
	//DEBUG_VALUE: __ufs_mq_queue_rq:q <- $x4
	//DEBUG_VALUE: __ufs_mq_queue_rq:hctx <- $x1
	//DEBUG_VALUE: __ufs_mq_queue_rq_internal:hctx <- $x1
	//DEBUG_VALUE: __ufs_mq_queue_rq_internal:q <- $x4
	//DEBUG_VALUE: __ufs_mq_queue_rq_internal:bd <- $x21
	//DEBUG_VALUE: __ufs_mq_queue_rq_internal:ds_lld <- undef
	.loc	1 1213 11 is_stmt 1     // kernel/block/mas_blk_iosched_ufs_mq.c:1213:11
	ldr	x8, [x4, #312]
	.loc	1 1213 8 is_stmt 0      // kernel/block/mas_blk_iosched_ufs_mq.c:1213:8
	mov	x0, x1
	mov	x1, x21
.Ltmp294:
	.loc	1 1213 19               // kernel/block/mas_blk_iosched_ufs_mq.c:1213:19
	ldr	x8, [x8]
	.loc	1 1213 8                // kernel/block/mas_blk_iosched_ufs_mq.c:1213:8
	blr	x8
.Ltmp295:
	.loc	1 1214 32 is_stmt 1     // kernel/block/mas_blk_iosched_ufs_mq.c:1214:32
	ldr	x8, [x21]
	.loc	1 1213 8                // kernel/block/mas_blk_iosched_ufs_mq.c:1213:8
	mov	w21, w0
.Ltmp296:
	//DEBUG_VALUE: __ufs_mq_queue_rq_internal:ret <- undef
	.loc	1 1214 2                // kernel/block/mas_blk_iosched_ufs_mq.c:1214:2
	mov	w1, #10
	mov	x0, x8
	bl	mas_blk_latency_req_check
	.loc	1 1213 8                // kernel/block/mas_blk_iosched_ufs_mq.c:1213:8
	ands	w0, w21, #0xff
.Ltmp297:
	//DEBUG_VALUE: __ufs_mq_queue_rq:ret <- $w0
	.loc	1 1244 6                // kernel/block/mas_blk_iosched_ufs_mq.c:1244:6
	b.ne	.LBB11_7
.Ltmp298:
.LBB11_5:
	//DEBUG_VALUE: __ufs_mq_queue_rq:ret <- $w0
	//DEBUG_VALUE: __ufs_mq_queue_rq:rq <- $x20
	//DEBUG_VALUE: __ufs_mq_queue_rq:ds_lld <- $x19
	.loc	1 1258 1                // kernel/block/mas_blk_iosched_ufs_mq.c:1258:1
	ldp	x29, x30, [sp, #32]     // 16-byte Folded Reload
	ldp	x20, x19, [sp, #16]     // 16-byte Folded Reload
.Ltmp299:
	ldp	x22, x21, [sp], #48     // 16-byte Folded Reload
	ret
.Ltmp300:
.LBB11_6:
	//DEBUG_VALUE: ufs_mq_fs_io_limit:rq <- $x20
	//DEBUG_VALUE: __ufs_mq_queue_rq:rq <- $x20
	//DEBUG_VALUE: __ufs_mq_queue_rq:ds_lld <- $x19
	//DEBUG_VALUE: __ufs_mq_queue_rq:bd <- $x21
	//DEBUG_VALUE: __ufs_mq_queue_rq:q <- $x4
	//DEBUG_VALUE: __ufs_mq_queue_rq:hctx <- $x1
	//DEBUG_VALUE: ufs_mq_async_io_limit:rq <- $x20
	//DEBUG_VALUE: ufs_mq_async_io_limit:ds_lld <- $x19
	//DEBUG_VALUE: atomic_add_return:i <- 1
	//DEBUG_VALUE: atomic_add_return:v <- [DW_OP_plus_uconst 36, DW_OP_stack_value] $x19
	.loc	153 113 1               // kernel/arch/arm64/include/asm/atomic_ll_sc.h:113:1
	add	x8, x19, #36            // =36
	//APP
	// atomic_add_return
	prfm	pstl1strm, [x8]
1:	ldxr	w9, [x8]
	add	w9, w9, #1
	stlxr	w10, w9, [x8]
	cbnz	w10, 1b
	dmb ish
	//NO_APP
.Ltmp301:
	//DEBUG_VALUE: atomic_add_return:tmp <- undef
	//DEBUG_VALUE: atomic_add_return:result <- $w9
	.loc	1 991 6                 // kernel/block/mas_blk_iosched_ufs_mq.c:991:6
	ldr	w8, [x19, #176]
.Ltmp302:
	.loc	1 0 0 is_stmt 0         // kernel/block/mas_blk_iosched_ufs_mq.c:0:0
	cmp	w9, w8
	b.gt	.LBB11_3
	b	.LBB11_4
.Ltmp303:
.LBB11_7:
	//DEBUG_VALUE: __ufs_mq_queue_rq:ret <- $w0
	//DEBUG_VALUE: __ufs_mq_queue_rq:rq <- $x20
	//DEBUG_VALUE: __ufs_mq_queue_rq:ds_lld <- $x19
	orr	w8, wzr, #0x1
	.loc	1 1247 29 is_stmt 1     // kernel/block/mas_blk_iosched_ufs_mq.c:1247:29
	str	w8, [x20, #300]
.Ltmp304:
	//DEBUG_VALUE: __read_once_size:size <- 4
	//DEBUG_VALUE: __read_once_size:res <- undef
	//DEBUG_VALUE: __read_once_size:p <- [DW_OP_plus_uconst 44, DW_OP_stack_value] $x19
	//DEBUG_VALUE: ufs_mq_get_hp_inflt:ds_lld <- $x19
	.loc	154 183 2               // kernel/include/linux/compiler.h:183:2
	ldr	w8, [x19, #44]
.Ltmp305:
	//DEBUG_VALUE: __read_once_size:p <- [DW_OP_plus_uconst 40, DW_OP_stack_value] $x19
	//DEBUG_VALUE: __read_once_size:size <- 4
	//DEBUG_VALUE: __read_once_size:res <- undef
	.loc	154 183 2 is_stmt 0     // kernel/include/linux/compiler.h:183:2
	ldr	w9, [x19, #40]
.Ltmp306:
	.loc	154 183 2               // kernel/include/linux/compiler.h:183:2
	ldr	w10, [x19, #32]
.Ltmp307:
	.loc	154 183 2               // kernel/include/linux/compiler.h:183:2
	ldr	w11, [x19, #36]
.Ltmp308:
	.loc	1 805 47 is_stmt 1      // kernel/block/mas_blk_iosched_ufs_mq.c:805:47
	add	w8, w9, w8
.Ltmp309:
	//DEBUG_VALUE: __read_once_size:p <- [DW_OP_plus_uconst 32, DW_OP_stack_value] $x19
	//DEBUG_VALUE: __read_once_size:size <- 4
	//DEBUG_VALUE: __read_once_size:res <- undef
	//DEBUG_VALUE: ufs_mq_get_hp_inflt:ds_lld <- $x19
	.loc	1 1248 34               // kernel/block/mas_blk_iosched_ufs_mq.c:1248:34
	add	w8, w8, w10
.Ltmp310:
	//DEBUG_VALUE: __read_once_size:p <- [DW_OP_plus_uconst 36, DW_OP_stack_value] $x19
	//DEBUG_VALUE: __read_once_size:size <- 4
	//DEBUG_VALUE: __read_once_size:res <- undef
	.loc	1 1249 44               // kernel/block/mas_blk_iosched_ufs_mq.c:1249:44
	add	w8, w8, w11
.Ltmp311:
	.loc	1 1248 6                // kernel/block/mas_blk_iosched_ufs_mq.c:1248:6
	cmp	w8, #8                  // =8
	b.gt	.LBB11_13
.Ltmp312:
// %bb.8:
	//DEBUG_VALUE: __ufs_mq_queue_rq:ret <- $w0
	//DEBUG_VALUE: __ufs_mq_queue_rq:rq <- $x20
	//DEBUG_VALUE: __ufs_mq_queue_rq:ds_lld <- $x19
	.loc	1 0 6 is_stmt 0         // kernel/block/mas_blk_iosched_ufs_mq.c:0:6
	orr	w8, wzr, #0x4
.Ltmp313:
	.loc	1 1252 30 is_stmt 1     // kernel/block/mas_blk_iosched_ufs_mq.c:1252:30
	str	w8, [x20, #300]
.Ltmp314:
	//DEBUG_VALUE: __ufs_mq_queue_rq:ret <- $w0
	//DEBUG_VALUE: ufs_mq_rq_inflt_update:rq <- $x20
	//DEBUG_VALUE: ufs_mq_rq_inflt_update:ds_lld <- $x19
	//DEBUG_LABEL: __ufs_mq_queue_rq:exit
	.loc	1 1073 6                // kernel/block/mas_blk_iosched_ufs_mq.c:1073:6
	ldr	w8, [x20, #84]
.Ltmp315:
	.loc	1 1073 6 is_stmt 0      // kernel/block/mas_blk_iosched_ufs_mq.c:1073:6
	tbnz	w8, #11, .LBB11_14
	b	.LBB11_17
.Ltmp316:
.LBB11_9:
	//DEBUG_VALUE: ufs_mq_sync_io_limit:ds_lld <- $x19
	//DEBUG_VALUE: ufs_mq_sync_io_limit:rq <- $x20
	//DEBUG_VALUE: ufs_mq_fs_io_limit:rq <- $x20
	//DEBUG_VALUE: __ufs_mq_queue_rq:rq <- $x20
	//DEBUG_VALUE: __ufs_mq_queue_rq:ds_lld <- $x19
	//DEBUG_VALUE: __ufs_mq_queue_rq:bd <- $x21
	//DEBUG_VALUE: __ufs_mq_queue_rq:q <- $x4
	//DEBUG_VALUE: __ufs_mq_queue_rq:hctx <- $x1
	//DEBUG_VALUE: ufs_mq_rq_is_fg:rq <- $x20
	//DEBUG_VALUE: atomic_add:i <- 1
	//DEBUG_VALUE: atomic_add:i <- 1
	.loc	1 946 7 is_stmt 1       // kernel/block/mas_blk_iosched_ufs_mq.c:946:7
	tbnz	w8, #23, .LBB11_16
.Ltmp317:
// %bb.10:
	//DEBUG_VALUE: ufs_mq_sync_io_limit:ds_lld <- $x19
	//DEBUG_VALUE: ufs_mq_sync_io_limit:rq <- $x20
	//DEBUG_VALUE: ufs_mq_fs_io_limit:rq <- $x20
	//DEBUG_VALUE: __ufs_mq_queue_rq:rq <- $x20
	//DEBUG_VALUE: __ufs_mq_queue_rq:ds_lld <- $x19
	//DEBUG_VALUE: __ufs_mq_queue_rq:bd <- $x21
	//DEBUG_VALUE: __ufs_mq_queue_rq:q <- $x4
	//DEBUG_VALUE: __ufs_mq_queue_rq:hctx <- $x1
	.loc	1 0 7 is_stmt 0         // kernel/block/mas_blk_iosched_ufs_mq.c:0:7
	mov	w9, #4096
	movk	w9, #64, lsl #16
	and	x8, x8, x9
	.loc	1 946 7                 // kernel/block/mas_blk_iosched_ufs_mq.c:946:7
	cbz	x8, .LBB11_16
.Ltmp318:
// %bb.11:
	//DEBUG_VALUE: ufs_mq_sync_io_limit:ds_lld <- $x19
	//DEBUG_VALUE: ufs_mq_sync_io_limit:rq <- $x20
	//DEBUG_VALUE: ufs_mq_fs_io_limit:rq <- $x20
	//DEBUG_VALUE: __ufs_mq_queue_rq:rq <- $x20
	//DEBUG_VALUE: __ufs_mq_queue_rq:ds_lld <- $x19
	//DEBUG_VALUE: __ufs_mq_queue_rq:bd <- $x21
	//DEBUG_VALUE: __ufs_mq_queue_rq:q <- $x4
	//DEBUG_VALUE: __ufs_mq_queue_rq:hctx <- $x1
	//DEBUG_VALUE: atomic_add:v <- [DW_OP_plus_uconst 44, DW_OP_stack_value] $x19
	.loc	153 113 1 is_stmt 1     // kernel/arch/arm64/include/asm/atomic_ll_sc.h:113:1
	add	x8, x19, #44            // =44
	//APP
	// atomic_add
	prfm	pstl1strm, [x8]
1:	ldxr	w9, [x8]
	add	w9, w9, #1
	stxr	w10, w9, [x8]
	cbnz	w10, 1b
	//NO_APP
.Ltmp319:
	//DEBUG_VALUE: atomic_add:tmp <- undef
	//DEBUG_VALUE: atomic_add:result <- undef
	.loc	153 0 1 is_stmt 0       // kernel/arch/arm64/include/asm/atomic_ll_sc.h:0:1
	b	.LBB11_4
.Ltmp320:
.LBB11_12:
	//DEBUG_VALUE: ufs_mq_fs_io_limit:rq <- $x20
	//DEBUG_VALUE: __ufs_mq_queue_rq:rq <- $x20
	//DEBUG_VALUE: __ufs_mq_queue_rq:ds_lld <- $x19
	//DEBUG_VALUE: __ufs_mq_queue_rq:bd <- $x21
	//DEBUG_VALUE: __ufs_mq_queue_rq:q <- $x4
	//DEBUG_VALUE: __ufs_mq_queue_rq:hctx <- $x1
	//DEBUG_VALUE: ufs_mq_sync_io_limit:ret <- 9
	orr	w8, wzr, #0x2
	str	w8, [x20, #300]
	mov	w0, #9
.Ltmp321:
.LBB11_13:
	//DEBUG_VALUE: __ufs_mq_queue_rq:rq <- $x20
	//DEBUG_VALUE: __ufs_mq_queue_rq:ds_lld <- $x19
	//DEBUG_VALUE: __ufs_mq_queue_rq:ret <- $w0
	//DEBUG_VALUE: ufs_mq_rq_inflt_update:rq <- $x20
	//DEBUG_VALUE: ufs_mq_rq_inflt_update:ds_lld <- $x19
	//DEBUG_LABEL: __ufs_mq_queue_rq:exit
	.loc	1 1073 6 is_stmt 1      // kernel/block/mas_blk_iosched_ufs_mq.c:1073:6
	ldr	w8, [x20, #84]
.Ltmp322:
	.loc	1 1073 6 is_stmt 0      // kernel/block/mas_blk_iosched_ufs_mq.c:1073:6
	tbz	w8, #11, .LBB11_17
.Ltmp323:
.LBB11_14:
	//DEBUG_VALUE: ufs_mq_rq_inflt_update:ds_lld <- $x19
	//DEBUG_VALUE: ufs_mq_rq_inflt_update:rq <- $x20
	//DEBUG_VALUE: __ufs_mq_queue_rq:ret <- $w0
	//DEBUG_VALUE: __ufs_mq_queue_rq:rq <- $x20
	//DEBUG_VALUE: __ufs_mq_queue_rq:ds_lld <- $x19
	.loc	1 1077 7 is_stmt 1      // kernel/block/mas_blk_iosched_ufs_mq.c:1077:7
	tst	w8, w22
.Ltmp324:
	.loc	1 1077 7 is_stmt 0      // kernel/block/mas_blk_iosched_ufs_mq.c:1077:7
	b.ne	.LBB11_18
.Ltmp325:
// %bb.15:
	//DEBUG_VALUE: ufs_mq_rq_inflt_update:ds_lld <- $x19
	//DEBUG_VALUE: ufs_mq_rq_inflt_update:rq <- $x20
	//DEBUG_VALUE: __ufs_mq_queue_rq:ret <- $w0
	//DEBUG_VALUE: __ufs_mq_queue_rq:rq <- $x20
	//DEBUG_VALUE: __ufs_mq_queue_rq:ds_lld <- $x19
	//DEBUG_VALUE: atomic_sub:i <- 1
	//DEBUG_VALUE: atomic_sub:v <- [DW_OP_plus_uconst 32, DW_OP_stack_value] $x19
	.loc	153 114 1 is_stmt 1     // kernel/arch/arm64/include/asm/atomic_ll_sc.h:114:1
	add	x8, x19, #32            // =32
	//APP
	// atomic_sub
	prfm	pstl1strm, [x8]
1:	ldxr	w9, [x8]
	sub	w9, w9, #1
	stxr	w10, w9, [x8]
	cbnz	w10, 1b
	//NO_APP
.Ltmp326:
	//DEBUG_VALUE: atomic_sub:tmp <- undef
	//DEBUG_VALUE: atomic_sub:result <- undef
	.loc	153 0 1 is_stmt 0       // kernel/arch/arm64/include/asm/atomic_ll_sc.h:0:1
	b	.LBB11_5
.Ltmp327:
.LBB11_16:
	//DEBUG_VALUE: ufs_mq_sync_io_limit:ds_lld <- $x19
	//DEBUG_VALUE: ufs_mq_sync_io_limit:rq <- $x20
	//DEBUG_VALUE: ufs_mq_fs_io_limit:rq <- $x20
	//DEBUG_VALUE: __ufs_mq_queue_rq:rq <- $x20
	//DEBUG_VALUE: __ufs_mq_queue_rq:ds_lld <- $x19
	//DEBUG_VALUE: __ufs_mq_queue_rq:bd <- $x21
	//DEBUG_VALUE: __ufs_mq_queue_rq:q <- $x4
	//DEBUG_VALUE: __ufs_mq_queue_rq:hctx <- $x1
	//DEBUG_VALUE: atomic_add:v <- [DW_OP_plus_uconst 40, DW_OP_stack_value] $x19
	.loc	153 113 1 is_stmt 1     // kernel/arch/arm64/include/asm/atomic_ll_sc.h:113:1
	add	x8, x19, #40            // =40
	//APP
	// atomic_add
	prfm	pstl1strm, [x8]
1:	ldxr	w9, [x8]
	add	w9, w9, #1
	stxr	w10, w9, [x8]
	cbnz	w10, 1b
	//NO_APP
.Ltmp328:
	//DEBUG_VALUE: atomic_add:tmp <- undef
	//DEBUG_VALUE: atomic_add:result <- undef
	.loc	153 0 1 is_stmt 0       // kernel/arch/arm64/include/asm/atomic_ll_sc.h:0:1
	b	.LBB11_4
.Ltmp329:
.LBB11_17:
	//DEBUG_VALUE: ufs_mq_rq_inflt_update:ds_lld <- $x19
	//DEBUG_VALUE: ufs_mq_rq_inflt_update:rq <- $x20
	//DEBUG_VALUE: __ufs_mq_queue_rq:ret <- $w0
	//DEBUG_VALUE: __ufs_mq_queue_rq:rq <- $x20
	//DEBUG_VALUE: __ufs_mq_queue_rq:ds_lld <- $x19
	//DEBUG_VALUE: atomic_sub:i <- 1
	//DEBUG_VALUE: atomic_sub:v <- [DW_OP_plus_uconst 36, DW_OP_stack_value] $x19
	.loc	153 114 1 is_stmt 1     // kernel/arch/arm64/include/asm/atomic_ll_sc.h:114:1
	add	x8, x19, #36            // =36
	//APP
	// atomic_sub
	prfm	pstl1strm, [x8]
1:	ldxr	w9, [x8]
	sub	w9, w9, #1
	stxr	w10, w9, [x8]
	cbnz	w10, 1b
	//NO_APP
.Ltmp330:
	//DEBUG_VALUE: atomic_sub:tmp <- undef
	//DEBUG_VALUE: atomic_sub:result <- undef
	.loc	153 0 1 is_stmt 0       // kernel/arch/arm64/include/asm/atomic_ll_sc.h:0:1
	b	.LBB11_5
.Ltmp331:
.LBB11_18:
	//DEBUG_VALUE: ufs_mq_rq_inflt_update:ds_lld <- $x19
	//DEBUG_VALUE: ufs_mq_rq_inflt_update:rq <- $x20
	//DEBUG_VALUE: __ufs_mq_queue_rq:ret <- $w0
	//DEBUG_VALUE: __ufs_mq_queue_rq:rq <- $x20
	//DEBUG_VALUE: __ufs_mq_queue_rq:ds_lld <- $x19
	//DEBUG_VALUE: ufs_mq_rq_is_fg:rq <- undef
	//DEBUG_VALUE: atomic_sub:i <- 1
	//DEBUG_VALUE: atomic_sub:i <- 1
	.loc	1 1083 8 is_stmt 1      // kernel/block/mas_blk_iosched_ufs_mq.c:1083:8
	tbnz	w8, #23, .LBB11_21
.Ltmp332:
// %bb.19:
	//DEBUG_VALUE: ufs_mq_rq_inflt_update:ds_lld <- $x19
	//DEBUG_VALUE: ufs_mq_rq_inflt_update:rq <- $x20
	//DEBUG_VALUE: __ufs_mq_queue_rq:ret <- $w0
	//DEBUG_VALUE: __ufs_mq_queue_rq:rq <- $x20
	//DEBUG_VALUE: __ufs_mq_queue_rq:ds_lld <- $x19
	.loc	1 0 8 is_stmt 0         // kernel/block/mas_blk_iosched_ufs_mq.c:0:8
	mov	w9, #4096
	movk	w9, #64, lsl #16
	and	x8, x8, x9
	.loc	1 1083 8                // kernel/block/mas_blk_iosched_ufs_mq.c:1083:8
	cbz	x8, .LBB11_21
.Ltmp333:
// %bb.20:
	//DEBUG_VALUE: ufs_mq_rq_inflt_update:ds_lld <- $x19
	//DEBUG_VALUE: ufs_mq_rq_inflt_update:rq <- $x20
	//DEBUG_VALUE: __ufs_mq_queue_rq:ret <- $w0
	//DEBUG_VALUE: __ufs_mq_queue_rq:rq <- $x20
	//DEBUG_VALUE: __ufs_mq_queue_rq:ds_lld <- $x19
	//DEBUG_VALUE: atomic_sub:v <- [DW_OP_plus_uconst 44, DW_OP_stack_value] $x19
	.loc	153 114 1 is_stmt 1     // kernel/arch/arm64/include/asm/atomic_ll_sc.h:114:1
	add	x8, x19, #44            // =44
	//APP
	// atomic_sub
	prfm	pstl1strm, [x8]
1:	ldxr	w9, [x8]
	sub	w9, w9, #1
	stxr	w10, w9, [x8]
	cbnz	w10, 1b
	//NO_APP
.Ltmp334:
	//DEBUG_VALUE: atomic_sub:tmp <- undef
	//DEBUG_VALUE: atomic_sub:result <- undef
	.loc	153 0 1 is_stmt 0       // kernel/arch/arm64/include/asm/atomic_ll_sc.h:0:1
	b	.LBB11_5
.Ltmp335:
.LBB11_21:
	//DEBUG_VALUE: ufs_mq_rq_inflt_update:ds_lld <- $x19
	//DEBUG_VALUE: ufs_mq_rq_inflt_update:rq <- $x20
	//DEBUG_VALUE: __ufs_mq_queue_rq:ret <- $w0
	//DEBUG_VALUE: __ufs_mq_queue_rq:rq <- $x20
	//DEBUG_VALUE: __ufs_mq_queue_rq:ds_lld <- $x19
	//DEBUG_VALUE: atomic_sub:v <- [DW_OP_plus_uconst 40, DW_OP_stack_value] $x19
	.loc	153 114 1               // kernel/arch/arm64/include/asm/atomic_ll_sc.h:114:1
	add	x8, x19, #40            // =40
	//APP
	// atomic_sub
	prfm	pstl1strm, [x8]
1:	ldxr	w9, [x8]
	sub	w9, w9, #1
	stxr	w10, w9, [x8]
	cbnz	w10, 1b
	//NO_APP
.Ltmp336:
	//DEBUG_VALUE: atomic_sub:tmp <- undef
	//DEBUG_VALUE: atomic_sub:result <- undef
	.loc	153 0 1                 // kernel/arch/arm64/include/asm/atomic_ll_sc.h:0:1
	b	.LBB11_5
.Ltmp337:
.Lfunc_end11:
	.size	__ufs_mq_queue_rq, .Lfunc_end11-__ufs_mq_queue_rq
	.cfi_endproc
                                        // -- End function
	.section	.text.ufs_mq_insert_sync_list,"ax",@progbits
	.p2align	2               // -- Begin function ufs_mq_insert_sync_list
	.type	ufs_mq_insert_sync_list,@function
ufs_mq_insert_sync_list:                // @ufs_mq_insert_sync_list
.Lfunc_begin12:
	.loc	1 1375 0 is_stmt 1      // kernel/block/mas_blk_iosched_ufs_mq.c:1375:0
	.cfi_startproc
// %bb.0:
	//DEBUG_VALUE: ufs_mq_insert_sync_list:rq <- $x0
	//DEBUG_VALUE: ufs_mq_insert_sync_list:q <- $x1
	//DEBUG_VALUE: ufs_mq_insert_sync_list:q <- $x1
	str	x21, [sp, #-48]!        // 8-byte Folded Spill
	stp	x20, x19, [sp, #16]     // 16-byte Folded Spill
	stp	x29, x30, [sp, #32]     // 16-byte Folded Spill
	add	x29, sp, #32            // =32
	.cfi_def_cfa w29, 16
	.cfi_offset w30, -8
	.cfi_offset w29, -16
	.cfi_offset w19, -24
	.cfi_offset w20, -32
	.cfi_offset w21, -48
.Ltmp338:
	.loc	1 1378 44 prologue_end  // kernel/block/mas_blk_iosched_ufs_mq.c:1378:44
	ldr	x8, [x1, #1800]
.Ltmp339:
	//DEBUG_VALUE: ufs_mq_insert_sync_list:sched_ds <- $x8
	.loc	1 1381 2                // kernel/block/mas_blk_iosched_ufs_mq.c:1381:2
	orr	w1, wzr, #0x8
.Ltmp340:
	.loc	1 0 2 is_stmt 0         // kernel/block/mas_blk_iosched_ufs_mq.c:0:2
	mov	x20, x0
.Ltmp341:
	//DEBUG_VALUE: ufs_mq_insert_sync_list:rq <- $x20
	.loc	1 1379 50 is_stmt 1     // kernel/block/mas_blk_iosched_ufs_mq.c:1379:50
	ldr	x21, [x8, #280]
.Ltmp342:
	//DEBUG_VALUE: ufs_mq_insert_sync_list:ds_lld <- $x21
	//DEBUG_VALUE: __add_vip_rq_to_list:ds_lld <- $x21
	//DEBUG_VALUE: atomic_add:v <- [DW_OP_plus_uconst 88, DW_OP_stack_value] $x21
	//DEBUG_VALUE: atomic_add:v <- [DW_OP_plus_uconst 88, DW_OP_stack_value] $x21
	//DEBUG_VALUE: ufs_mq_order_insert_sync_list:ds_lld <- $x21
	//DEBUG_VALUE: atomic_add:v <- [DW_OP_plus_uconst 112, DW_OP_stack_value] $x21
	//DEBUG_VALUE: spin_unlock_irqrestore:lock <- [DW_OP_plus_uconst 48, DW_OP_stack_value] $x21
	.loc	1 1381 2                // kernel/block/mas_blk_iosched_ufs_mq.c:1381:2
	bl	mas_blk_latency_req_check
.Ltmp343:
	//DEBUG_VALUE: spinlock_check:lock <- [DW_OP_plus_uconst 48, DW_OP_stack_value] $x21
	.file	163 "/mnt/disk/jenkins/ci/workspace/chipset_pipeline_release/opensource/component_code/vendor/huawei/extra/build/build_script/kirin_kernel_release/kernel/include/linux/spinlock.h"
	.loc	163 306 16              // kernel/include/linux/spinlock.h:306:16
	add	x19, x21, #48           // =48
.Ltmp344:
	.loc	1 1383 2                // kernel/block/mas_blk_iosched_ufs_mq.c:1383:2
	mov	x0, x19
	bl	_raw_spin_lock_irqsave
.Ltmp345:
	.loc	1 1384 10               // kernel/block/mas_blk_iosched_ufs_mq.c:1384:10
	ldr	w8, [x20, #84]
.Ltmp346:
	.loc	1 1383 2                // kernel/block/mas_blk_iosched_ufs_mq.c:1383:2
	mov	x1, x0
.Ltmp347:
	//DEBUG_VALUE: ufs_mq_insert_sync_list:flags <- $x1
	//DEBUG_VALUE: spin_unlock_irqrestore:flags <- $x1
	.loc	1 1384 6                // kernel/block/mas_blk_iosched_ufs_mq.c:1384:6
	tbnz	w8, #23, .LBB12_3
.Ltmp348:
// %bb.1:
	//DEBUG_VALUE: ufs_mq_insert_sync_list:flags <- $x1
	//DEBUG_VALUE: ufs_mq_insert_sync_list:ds_lld <- $x21
	//DEBUG_VALUE: ufs_mq_insert_sync_list:rq <- $x20
	.loc	1 0 6 is_stmt 0         // kernel/block/mas_blk_iosched_ufs_mq.c:0:6
	mov	w9, #4096
	movk	w9, #64, lsl #16
.Ltmp349:
	.loc	1 1387 27 is_stmt 1     // kernel/block/mas_blk_iosched_ufs_mq.c:1387:27
	tst	x8, x9
.Ltmp350:
	.loc	1 1387 13 is_stmt 0     // kernel/block/mas_blk_iosched_ufs_mq.c:1387:13
	b.eq	.LBB12_9
.Ltmp351:
// %bb.2:
	//DEBUG_VALUE: ufs_mq_insert_sync_list:flags <- $x1
	//DEBUG_VALUE: ufs_mq_insert_sync_list:ds_lld <- $x21
	//DEBUG_VALUE: ufs_mq_insert_sync_list:rq <- $x20
	//DEBUG_VALUE: list_add_tail:new <- $x20
	.loc	157 93 24 is_stmt 1     // kernel/include/linux/list.h:93:24
	ldr	x8, [x21, #80]
.Ltmp352:
	.loc	1 1388 42               // kernel/block/mas_blk_iosched_ufs_mq.c:1388:42
	add	x9, x21, #72            // =72
.Ltmp353:
	//DEBUG_VALUE: list_add_tail:head <- $x9
	//DEBUG_VALUE: __list_add:next <- $x9
	//DEBUG_VALUE: __list_add:prev <- $x8
	//DEBUG_VALUE: __list_add:new <- $x20
	.loc	157 63 13               // kernel/include/linux/list.h:63:13
	str	x20, [x21, #80]
	//DEBUG_VALUE: list_add_tail:new <- $x20
	.loc	157 64 12               // kernel/include/linux/list.h:64:12
	stp	x9, x8, [x20]
.Ltmp354:
	//DEBUG_VALUE: __write_once_size:p <- $x8
	//DEBUG_VALUE: __write_once_size:size <- 8
	//DEBUG_VALUE: __write_once_size:res <- undef
	.loc	154 210 31              // kernel/include/linux/compiler.h:210:31
	str	x20, [x8]
.Ltmp355:
	//DEBUG_VALUE: atomic_add:i <- 1
	.loc	153 113 1               // kernel/arch/arm64/include/asm/atomic_ll_sc.h:113:1
	add	x8, x21, #88            // =88
.Ltmp356:
	//APP
	// atomic_add
	prfm	pstl1strm, [x8]
1:	ldxr	w9, [x8]
	add	w9, w9, #1
	stxr	w10, w9, [x8]
	cbnz	w10, 1b
	//NO_APP
.Ltmp357:
	//DEBUG_VALUE: atomic_add:tmp <- undef
	//DEBUG_VALUE: atomic_add:result <- undef
	.loc	153 0 1 is_stmt 0       // kernel/arch/arm64/include/asm/atomic_ll_sc.h:0:1
	b	.LBB12_24
.Ltmp358:
.LBB12_3:
	//DEBUG_VALUE: ufs_mq_insert_sync_list:flags <- $x1
	//DEBUG_VALUE: __add_vip_rq_to_list:ds_lld <- $x21
	//DEBUG_VALUE: ufs_mq_insert_sync_list:ds_lld <- $x21
	//DEBUG_VALUE: ufs_mq_insert_sync_list:rq <- $x20
	//DEBUG_VALUE: __add_vip_rq_to_list:rq <- $x20
	//DEBUG_VALUE: __add_vip_rq_to_list:pos <- 0
	//DEBUG_VALUE: __read_once_size:res <- undef
	//DEBUG_VALUE: __read_once_size:size <- 8
	//DEBUG_VALUE: __list_add:next <- undef
	//DEBUG_VALUE: list_is_last:head <- undef
	//DEBUG_VALUE: __list_add:next <- undef
	//DEBUG_VALUE: list_add_tail:head <- undef
	//DEBUG_VALUE: list_empty:head <- undef
	//DEBUG_VALUE: __read_once_size:p <- undef
	.loc	154 183 2 is_stmt 1     // kernel/include/linux/compiler.h:183:2
	mov	x9, x21
	ldr	x8, [x9, #72]!
.Ltmp359:
	//DEBUG_VALUE: __add_vip_rq_to_list:pos <- $x8
	.loc	1 1298 6                // kernel/block/mas_blk_iosched_ufs_mq.c:1298:6
	cmp	x9, x8
	b.eq	.LBB12_19
.Ltmp360:
// %bb.4:
	//DEBUG_VALUE: __add_vip_rq_to_list:pos <- $x8
	//DEBUG_VALUE: __add_vip_rq_to_list:rq <- $x20
	//DEBUG_VALUE: ufs_mq_insert_sync_list:flags <- $x1
	//DEBUG_VALUE: __add_vip_rq_to_list:ds_lld <- $x21
	//DEBUG_VALUE: ufs_mq_insert_sync_list:ds_lld <- $x21
	//DEBUG_VALUE: ufs_mq_insert_sync_list:rq <- $x20
	.loc	1 1303 2                // kernel/block/mas_blk_iosched_ufs_mq.c:1303:2
	cmp	x8, x9
	b.eq	.LBB12_21
.Ltmp361:
// %bb.5:
	//DEBUG_VALUE: __add_vip_rq_to_list:pos <- $x8
	//DEBUG_VALUE: __add_vip_rq_to_list:rq <- $x20
	//DEBUG_VALUE: ufs_mq_insert_sync_list:flags <- $x1
	//DEBUG_VALUE: __add_vip_rq_to_list:ds_lld <- $x21
	//DEBUG_VALUE: ufs_mq_insert_sync_list:ds_lld <- $x21
	//DEBUG_VALUE: ufs_mq_insert_sync_list:rq <- $x20
	//DEBUG_VALUE: list_is_last:list <- $x8
	.loc	1 1304 7                // kernel/block/mas_blk_iosched_ufs_mq.c:1304:7
	ldrb	w10, [x8, #86]
	tbz	w10, #7, .LBB12_8
.Ltmp362:
.LBB12_6:                               // =>This Inner Loop Header: Depth=1
	//DEBUG_VALUE: list_is_last:list <- $x8
	//DEBUG_VALUE: __add_vip_rq_to_list:pos <- $x8
	//DEBUG_VALUE: __add_vip_rq_to_list:rq <- $x20
	//DEBUG_VALUE: ufs_mq_insert_sync_list:flags <- $x1
	//DEBUG_VALUE: __add_vip_rq_to_list:ds_lld <- $x21
	//DEBUG_VALUE: ufs_mq_insert_sync_list:ds_lld <- $x21
	//DEBUG_VALUE: ufs_mq_insert_sync_list:rq <- $x20
	.loc	157 194 15              // kernel/include/linux/list.h:194:15
	ldr	x10, [x8]
.Ltmp363:
	.loc	1 1308 7                // kernel/block/mas_blk_iosched_ufs_mq.c:1308:7
	cmp	x10, x9
	b.eq	.LBB12_20
.Ltmp364:
// %bb.7:                               //   in Loop: Header=BB12_6 Depth=1
	//DEBUG_VALUE: list_is_last:list <- $x8
	//DEBUG_VALUE: __add_vip_rq_to_list:pos <- $x8
	//DEBUG_VALUE: __add_vip_rq_to_list:rq <- $x20
	//DEBUG_VALUE: ufs_mq_insert_sync_list:flags <- $x1
	//DEBUG_VALUE: __add_vip_rq_to_list:ds_lld <- $x21
	//DEBUG_VALUE: ufs_mq_insert_sync_list:ds_lld <- $x21
	//DEBUG_VALUE: ufs_mq_insert_sync_list:rq <- $x20
	.loc	1 0 7 is_stmt 0         // kernel/block/mas_blk_iosched_ufs_mq.c:0:7
	mov	x8, x10
.Ltmp365:
	//DEBUG_VALUE: list_is_last:list <- $x8
	//DEBUG_VALUE: __add_vip_rq_to_list:pos <- $x8
	.loc	1 1304 7 is_stmt 1      // kernel/block/mas_blk_iosched_ufs_mq.c:1304:7
	ldrb	w10, [x10, #86]
	tbnz	w10, #7, .LBB12_6
.Ltmp366:
.LBB12_8:
	//DEBUG_VALUE: __add_vip_rq_to_list:pos <- $x8
	//DEBUG_VALUE: __add_vip_rq_to_list:rq <- $x20
	//DEBUG_VALUE: ufs_mq_insert_sync_list:flags <- $x1
	//DEBUG_VALUE: __add_vip_rq_to_list:ds_lld <- $x21
	//DEBUG_VALUE: ufs_mq_insert_sync_list:ds_lld <- $x21
	//DEBUG_VALUE: ufs_mq_insert_sync_list:rq <- $x20
	//DEBUG_VALUE: list_add_tail:head <- $x8
	//DEBUG_VALUE: list_add_tail:new <- $x20
	.loc	157 93 24               // kernel/include/linux/list.h:93:24
	ldr	x9, [x8, #8]
.Ltmp367:
	//DEBUG_VALUE: __list_add:prev <- $x9
	//DEBUG_VALUE: __list_add:new <- $x20
	//DEBUG_VALUE: __list_add:next <- $x8
	.loc	157 63 13               // kernel/include/linux/list.h:63:13
	str	x20, [x8, #8]
	.loc	157 64 12               // kernel/include/linux/list.h:64:12
	stp	x8, x9, [x20]
.Ltmp368:
	//DEBUG_VALUE: __write_once_size:p <- $x9
	//DEBUG_VALUE: __write_once_size:size <- 8
	//DEBUG_VALUE: __write_once_size:res <- undef
	.loc	154 210 31              // kernel/include/linux/compiler.h:210:31
	str	x20, [x9]
	b	.LBB12_21
.Ltmp369:
.LBB12_9:
	//DEBUG_VALUE: ufs_mq_insert_sync_list:flags <- $x1
	//DEBUG_VALUE: ufs_mq_insert_sync_list:ds_lld <- $x21
	//DEBUG_VALUE: ufs_mq_insert_sync_list:rq <- $x20
	//DEBUG_VALUE: ufs_mq_order_insert_sync_list:rq <- $x20
	//DEBUG_VALUE: __read_once_size:res <- undef
	//DEBUG_VALUE: __read_once_size:size <- 8
	//DEBUG_VALUE: __list_add:next <- undef
	//DEBUG_VALUE: list_add_tail:head <- undef
	//DEBUG_VALUE: __list_add:next <- undef
	//DEBUG_VALUE: list_add_tail:head <- undef
	//DEBUG_VALUE: ufs_mq_order_insert_sync_list:target_list <- undef
	//DEBUG_VALUE: list_empty:head <- undef
	//DEBUG_VALUE: __read_once_size:p <- undef
	.loc	154 183 2               // kernel/include/linux/compiler.h:183:2
	mov	x8, x21
	ldr	x9, [x8, #96]!
.Ltmp370:
	//DEBUG_VALUE: pos <- $x9
	.loc	1 1322 31               // kernel/block/mas_blk_iosched_ufs_mq.c:1322:31
	cmp	x8, x9
	b.eq	.LBB12_22
.Ltmp371:
// %bb.10:
	//DEBUG_VALUE: ufs_mq_order_insert_sync_list:rq <- $x20
	//DEBUG_VALUE: ufs_mq_insert_sync_list:flags <- $x1
	//DEBUG_VALUE: ufs_mq_insert_sync_list:ds_lld <- $x21
	//DEBUG_VALUE: ufs_mq_insert_sync_list:rq <- $x20
	.loc	1 1322 46 is_stmt 0     // kernel/block/mas_blk_iosched_ufs_mq.c:1322:46
	ldr	w10, [x20, #440]
.Ltmp372:
	//DEBUG_VALUE: ufs_mq_nr_before:nr1 <- $w10
	.loc	1 1322 6                // kernel/block/mas_blk_iosched_ufs_mq.c:1322:6
	cbz	w10, .LBB12_22
.Ltmp373:
// %bb.11:
	//DEBUG_VALUE: ufs_mq_order_insert_sync_list:rq <- $x20
	//DEBUG_VALUE: ufs_mq_insert_sync_list:flags <- $x1
	//DEBUG_VALUE: ufs_mq_insert_sync_list:ds_lld <- $x21
	//DEBUG_VALUE: ufs_mq_insert_sync_list:rq <- $x20
	//DEBUG_VALUE: pos <- 0
	.loc	1 1324 3 is_stmt 1      // kernel/block/mas_blk_iosched_ufs_mq.c:1324:3
	cmp	x9, x8
	b.eq	.LBB12_18
.Ltmp374:
// %bb.12:
	//DEBUG_VALUE: ufs_mq_order_insert_sync_list:rq <- $x20
	//DEBUG_VALUE: ufs_mq_insert_sync_list:flags <- $x1
	//DEBUG_VALUE: ufs_mq_insert_sync_list:ds_lld <- $x21
	//DEBUG_VALUE: ufs_mq_insert_sync_list:rq <- $x20
	.loc	1 1325 22               // kernel/block/mas_blk_iosched_ufs_mq.c:1325:22
	ldr	w11, [x9, #440]
.Ltmp375:
	//DEBUG_VALUE: ufs_mq_nr_before:nr2 <- $w11
	.loc	1 1325 8 is_stmt 0      // kernel/block/mas_blk_iosched_ufs_mq.c:1325:8
	cbz	w11, .LBB12_14
.Ltmp376:
// %bb.13:
	//DEBUG_VALUE: ufs_mq_order_insert_sync_list:rq <- $x20
	//DEBUG_VALUE: ufs_mq_insert_sync_list:flags <- $x1
	//DEBUG_VALUE: ufs_mq_insert_sync_list:ds_lld <- $x21
	//DEBUG_VALUE: ufs_mq_insert_sync_list:rq <- $x20
	.loc	1 0 0                   // kernel/block/mas_blk_iosched_ufs_mq.c:0:0
	sub	w11, w10, w11
	.loc	1 1325 8                // kernel/block/mas_blk_iosched_ufs_mq.c:1325:8
	tbnz	w11, #31, .LBB12_17
.Ltmp377:
.LBB12_14:                              // =>This Inner Loop Header: Depth=1
	//DEBUG_VALUE: ufs_mq_order_insert_sync_list:rq <- $x20
	//DEBUG_VALUE: ufs_mq_insert_sync_list:flags <- $x1
	//DEBUG_VALUE: ufs_mq_insert_sync_list:ds_lld <- $x21
	//DEBUG_VALUE: ufs_mq_insert_sync_list:rq <- $x20
	//DEBUG_VALUE: __mptr <- undef
	.loc	1 0 0                   // kernel/block/mas_blk_iosched_ufs_mq.c:0:0
	ldr	x9, [x9]
.Ltmp378:
	//DEBUG_VALUE: pos <- $x9
	.loc	1 1324 3 is_stmt 1      // kernel/block/mas_blk_iosched_ufs_mq.c:1324:3
	cmp	x9, x8
	b.eq	.LBB12_18
.Ltmp379:
// %bb.15:                              //   in Loop: Header=BB12_14 Depth=1
	//DEBUG_VALUE: pos <- $x9
	//DEBUG_VALUE: ufs_mq_order_insert_sync_list:rq <- $x20
	//DEBUG_VALUE: ufs_mq_insert_sync_list:flags <- $x1
	//DEBUG_VALUE: ufs_mq_insert_sync_list:ds_lld <- $x21
	//DEBUG_VALUE: ufs_mq_insert_sync_list:rq <- $x20
	.loc	1 1325 22               // kernel/block/mas_blk_iosched_ufs_mq.c:1325:22
	ldr	w11, [x9, #440]
.Ltmp380:
	//DEBUG_VALUE: ufs_mq_nr_before:nr2 <- $w11
	.loc	1 1325 8 is_stmt 0      // kernel/block/mas_blk_iosched_ufs_mq.c:1325:8
	cbz	w11, .LBB12_14
.Ltmp381:
// %bb.16:                              //   in Loop: Header=BB12_14 Depth=1
	//DEBUG_VALUE: pos <- $x9
	//DEBUG_VALUE: ufs_mq_order_insert_sync_list:rq <- $x20
	//DEBUG_VALUE: ufs_mq_insert_sync_list:flags <- $x1
	//DEBUG_VALUE: ufs_mq_insert_sync_list:ds_lld <- $x21
	//DEBUG_VALUE: ufs_mq_insert_sync_list:rq <- $x20
	.loc	1 0 0                   // kernel/block/mas_blk_iosched_ufs_mq.c:0:0
	sub	w11, w10, w11
	.loc	1 1325 8                // kernel/block/mas_blk_iosched_ufs_mq.c:1325:8
	tbz	w11, #31, .LBB12_14
.Ltmp382:
.LBB12_17:
	//DEBUG_VALUE: ufs_mq_order_insert_sync_list:rq <- $x20
	//DEBUG_VALUE: ufs_mq_insert_sync_list:flags <- $x1
	//DEBUG_VALUE: ufs_mq_insert_sync_list:ds_lld <- $x21
	//DEBUG_VALUE: ufs_mq_insert_sync_list:rq <- $x20
	.loc	1 0 8                   // kernel/block/mas_blk_iosched_ufs_mq.c:0:8
	mov	x8, x9
.Ltmp383:
.LBB12_18:
	//DEBUG_VALUE: ufs_mq_order_insert_sync_list:rq <- $x20
	//DEBUG_VALUE: ufs_mq_insert_sync_list:flags <- $x1
	//DEBUG_VALUE: ufs_mq_insert_sync_list:ds_lld <- $x21
	//DEBUG_VALUE: ufs_mq_insert_sync_list:rq <- $x20
	//DEBUG_VALUE: list_add_tail:new <- $x20
	ldr	x10, [x9, #8]
.Ltmp384:
	//DEBUG_VALUE: __list_add:prev <- $x10
	//DEBUG_VALUE: __list_add:new <- $x20
	str	x20, [x9, #8]
.Ltmp385:
	//DEBUG_VALUE: __write_once_size:size <- 8
	//DEBUG_VALUE: __write_once_size:res <- undef
	b	.LBB12_23
.Ltmp386:
.LBB12_19:
	//DEBUG_VALUE: __add_vip_rq_to_list:pos <- $x8
	//DEBUG_VALUE: __add_vip_rq_to_list:rq <- $x20
	//DEBUG_VALUE: ufs_mq_insert_sync_list:flags <- $x1
	//DEBUG_VALUE: __add_vip_rq_to_list:ds_lld <- $x21
	//DEBUG_VALUE: ufs_mq_insert_sync_list:ds_lld <- $x21
	//DEBUG_VALUE: ufs_mq_insert_sync_list:rq <- $x20
	//DEBUG_VALUE: list_add_tail:new <- $x20
	.loc	157 93 24 is_stmt 1     // kernel/include/linux/list.h:93:24
	ldr	x8, [x21, #80]
.Ltmp387:
.LBB12_20:
	//DEBUG_VALUE: __add_vip_rq_to_list:rq <- $x20
	//DEBUG_VALUE: ufs_mq_insert_sync_list:flags <- $x1
	//DEBUG_VALUE: __add_vip_rq_to_list:ds_lld <- $x21
	//DEBUG_VALUE: ufs_mq_insert_sync_list:ds_lld <- $x21
	//DEBUG_VALUE: ufs_mq_insert_sync_list:rq <- $x20
	//DEBUG_VALUE: list_is_last:list <- $x8
	//DEBUG_VALUE: __list_add:prev <- $x8
	//DEBUG_VALUE: list_add:head <- $x8
	//DEBUG_VALUE: list_add:new <- $x20
	//DEBUG_VALUE: __list_add:new <- $x20
	.loc	1 0 0 is_stmt 0         // kernel/block/mas_blk_iosched_ufs_mq.c:0:0
	str	x20, [x21, #80]
	stp	x9, x8, [x20]
.Ltmp388:
	//DEBUG_VALUE: __write_once_size:p <- $x8
	//DEBUG_VALUE: __write_once_size:size <- 8
	//DEBUG_VALUE: __write_once_size:res <- undef
	str	x20, [x8]
.Ltmp389:
.LBB12_21:
	//DEBUG_VALUE: ufs_mq_insert_sync_list:flags <- $x1
	//DEBUG_VALUE: ufs_mq_insert_sync_list:ds_lld <- $x21
	//DEBUG_VALUE: ufs_mq_insert_sync_list:rq <- $x20
	//DEBUG_VALUE: atomic_add:i <- 1
	.loc	153 113 1 is_stmt 1     // kernel/arch/arm64/include/asm/atomic_ll_sc.h:113:1
	add	x8, x21, #88            // =88
	//APP
	// atomic_add
	prfm	pstl1strm, [x8]
1:	ldxr	w9, [x8]
	add	w9, w9, #1
	stxr	w10, w9, [x8]
	cbnz	w10, 1b
	//NO_APP
.Ltmp390:
	//DEBUG_VALUE: atomic_add:tmp <- undef
	//DEBUG_VALUE: atomic_add:result <- undef
	.loc	153 0 1 is_stmt 0       // kernel/arch/arm64/include/asm/atomic_ll_sc.h:0:1
	b	.LBB12_24
.Ltmp391:
.LBB12_22:
	//DEBUG_VALUE: ufs_mq_order_insert_sync_list:rq <- $x20
	//DEBUG_VALUE: ufs_mq_insert_sync_list:flags <- $x1
	//DEBUG_VALUE: ufs_mq_insert_sync_list:ds_lld <- $x21
	//DEBUG_VALUE: ufs_mq_insert_sync_list:rq <- $x20
	//DEBUG_VALUE: list_add_tail:new <- $x20
	.loc	157 93 24 is_stmt 1     // kernel/include/linux/list.h:93:24
	ldr	x10, [x21, #104]
.Ltmp392:
	//DEBUG_VALUE: __list_add:prev <- $x10
	//DEBUG_VALUE: __list_add:new <- $x20
	.loc	157 63 13               // kernel/include/linux/list.h:63:13
	str	x20, [x21, #104]
.Ltmp393:
	//DEBUG_VALUE: __write_once_size:size <- 8
	//DEBUG_VALUE: __write_once_size:res <- undef
.LBB12_23:
	//DEBUG_VALUE: ufs_mq_order_insert_sync_list:rq <- $x20
	//DEBUG_VALUE: ufs_mq_insert_sync_list:flags <- $x1
	//DEBUG_VALUE: ufs_mq_insert_sync_list:ds_lld <- $x21
	//DEBUG_VALUE: ufs_mq_insert_sync_list:rq <- $x20
	.loc	1 0 0 is_stmt 0         // kernel/block/mas_blk_iosched_ufs_mq.c:0:0
	stp	x8, x10, [x20]
.Ltmp394:
	//DEBUG_VALUE: __write_once_size:p <- $x10
	str	x20, [x10]
.Ltmp395:
	//DEBUG_VALUE: atomic_add:i <- 1
	.loc	153 113 1 is_stmt 1     // kernel/arch/arm64/include/asm/atomic_ll_sc.h:113:1
	add	x8, x21, #112           // =112
	//APP
	// atomic_add
	prfm	pstl1strm, [x8]
1:	ldxr	w9, [x8]
	add	w9, w9, #1
	stxr	w10, w9, [x8]
	cbnz	w10, 1b
	//NO_APP
.Ltmp396:
	//DEBUG_VALUE: atomic_add:tmp <- undef
	//DEBUG_VALUE: atomic_add:result <- undef
.LBB12_24:
	//DEBUG_VALUE: ufs_mq_insert_sync_list:flags <- $x1
	//DEBUG_VALUE: ufs_mq_insert_sync_list:ds_lld <- $x21
	//DEBUG_VALUE: ufs_mq_insert_sync_list:rq <- $x20
	.loc	163 372 2               // kernel/include/linux/spinlock.h:372:2
	mov	x0, x19
	bl	_raw_spin_unlock_irqrestore
.Ltmp397:
	.loc	1 1395 1                // kernel/block/mas_blk_iosched_ufs_mq.c:1395:1
	ldp	x29, x30, [sp, #32]     // 16-byte Folded Reload
	ldp	x20, x19, [sp, #16]     // 16-byte Folded Reload
.Ltmp398:
	ldr	x21, [sp], #48          // 8-byte Folded Reload
.Ltmp399:
	ret
.Ltmp400:
.Lfunc_end12:
	.size	ufs_mq_insert_sync_list, .Lfunc_end12-ufs_mq_insert_sync_list
	.cfi_endproc
                                        // -- End function
	.section	.text.ufs_mq_make_request,"ax",@progbits
	.hidden	ufs_mq_make_request     // -- Begin function ufs_mq_make_request
	.globl	ufs_mq_make_request
	.p2align	2
	.type	ufs_mq_make_request,@function
ufs_mq_make_request:                    // @ufs_mq_make_request
.Lfunc_begin13:
	.loc	1 1710 0                // kernel/block/mas_blk_iosched_ufs_mq.c:1710:0
	.cfi_startproc
// %bb.0:
	//DEBUG_VALUE: ufs_mq_make_request:q <- $x0
	//DEBUG_VALUE: ufs_mq_make_request:bio <- $x1
	sub	sp, sp, #176            // =176
	stp	x26, x25, [sp, #96]     // 16-byte Folded Spill
	stp	x24, x23, [sp, #112]    // 16-byte Folded Spill
	stp	x22, x21, [sp, #128]    // 16-byte Folded Spill
	stp	x20, x19, [sp, #144]    // 16-byte Folded Spill
	stp	x29, x30, [sp, #160]    // 16-byte Folded Spill
	add	x29, sp, #160           // =160
	.cfi_def_cfa w29, 16
	.cfi_offset w30, -8
	.cfi_offset w29, -16
	.cfi_offset w19, -24
	.cfi_offset w20, -32
	.cfi_offset w21, -40
	.cfi_offset w22, -48
	.cfi_offset w23, -56
	.cfi_offset w24, -64
	.cfi_offset w25, -72
	.cfi_offset w26, -80
	adrp	x8, __stack_chk_guard
	ldr	x8, [x8, :lo12:__stack_chk_guard]
	mov	w9, #253
.Ltmp401:
	//DEBUG_VALUE: ufs_mq_bio_is_sync:bio <- $x19
	//DEBUG_VALUE: ufs_mq_bio_is_sync:q <- undef
	//DEBUG_VALUE: ufs_mq_bio_is_sync:dispatch_op <- [DW_OP_constu 255, DW_OP_and, DW_OP_stack_value] $w8
	mov	x19, x1
.Ltmp402:
	mov	x20, x0
.Ltmp403:
	//DEBUG_VALUE: ufs_mq_make_request:q <- $x20
	stur	x8, [x29, #-72]
.Ltmp404:
	//DEBUG_VALUE: ufs_mq_make_request:bio <- $x19
	.loc	1 1711 27 prologue_end  // kernel/block/mas_blk_iosched_ufs_mq.c:1711:27
	stp	xzr, xzr, [sp, #56]
	stp	xzr, xzr, [sp, #40]
	stp	xzr, xzr, [sp, #24]
	str	xzr, [sp, #16]
.Ltmp405:
	//DEBUG_VALUE: ufs_mq_make_request:wb_acct <- 0
	//DEBUG_VALUE: ufs_mq_make_request:same_queue_rq <- 0
	//DEBUG_VALUE: ufs_mq_make_request:rq <- 0
	.loc	1 1718 44               // kernel/block/mas_blk_iosched_ufs_mq.c:1718:44
	ldr	w8, [x1, #16]
.Ltmp406:
	.loc	1 1408 33               // kernel/block/mas_blk_iosched_ufs_mq.c:1408:33
	tst	w8, w9
	b.eq	.LBB13_3
.Ltmp407:
// %bb.1:
	//DEBUG_VALUE: ufs_mq_make_request:bio <- $x19
	//DEBUG_VALUE: ufs_mq_make_request:q <- $x20
	.loc	1 0 33 is_stmt 0        // kernel/block/mas_blk_iosched_ufs_mq.c:0:33
	mov	w9, #6144
	movk	w9, #68, lsl #16
	and	w9, w8, w9
	.loc	1 1408 33               // kernel/block/mas_blk_iosched_ufs_mq.c:1408:33
	cbnz	w9, .LBB13_3
.Ltmp408:
// %bb.2:
	//DEBUG_VALUE: ufs_mq_make_request:bio <- $x19
	//DEBUG_VALUE: ufs_mq_make_request:q <- $x20
	.loc	1 0 33                  // kernel/block/mas_blk_iosched_ufs_mq.c:0:33
	mov	x25, xzr
	.loc	1 1713 18 is_stmt 1     // kernel/block/mas_blk_iosched_ufs_mq.c:1713:18
	mov	x23, xzr
	orr	w26, wzr, #0x1
	orr	w22, wzr, #0x1
	b	.LBB13_14
.Ltmp409:
.LBB13_3:
	//DEBUG_VALUE: ufs_mq_make_request:bio <- $x19
	//DEBUG_VALUE: ufs_mq_make_request:q <- $x20
	.loc	1 1412 14               // kernel/block/mas_blk_iosched_ufs_mq.c:1412:14
	ldr	x9, [x20, #1800]
.Ltmp410:
	//DEBUG_VALUE: sched_ds <- $x9
	.loc	1 1414 15               // kernel/block/mas_blk_iosched_ufs_mq.c:1414:15
	orr	w8, w8, #0x800
	str	w8, [x19, #16]
	.loc	1 1415 46               // kernel/block/mas_blk_iosched_ufs_mq.c:1415:46
	ldr	x22, [x9, #280]
.Ltmp411:
	//DEBUG_VALUE: ufs_mq_sync_burst_dispatch_check:ds_lld <- $x22
	//DEBUG_VALUE: io_submit_intrvl_l_than:ds_lld <- $x22
	//DEBUG_VALUE: io_submit_intrvl_l_than:ds_lld <- $x22
	.loc	1 621 14                // kernel/block/mas_blk_iosched_ufs_mq.c:621:14
	bl	ktime_get
.Ltmp412:
	.loc	154 183 2               // kernel/include/linux/compiler.h:183:2
	ldr	w8, [x22, #272]
.Ltmp413:
	.loc	1 621 14                // kernel/block/mas_blk_iosched_ufs_mq.c:621:14
	mov	x21, x0
.Ltmp414:
	//DEBUG_VALUE: __read_once_size:p <- [DW_OP_plus_uconst 272, DW_OP_stack_value] $x22
	//DEBUG_VALUE: __write_once_size:p <- [DW_OP_plus_uconst 272, DW_OP_stack_value] $x22
	//DEBUG_VALUE: __write_once_size:p <- [DW_OP_plus_uconst 272, DW_OP_stack_value] $x22
	//DEBUG_VALUE: __read_once_size:size <- 4
	//DEBUG_VALUE: __read_once_size:res <- undef
	//DEBUG_VALUE: ufs_mq_sync_burst_dispatch_check:now_ktime <- $x21
	//DEBUG_VALUE: io_submit_intrvl_l_than:base <- $x21
	//DEBUG_VALUE: ktime_before:cmp1 <- $x21
	//DEBUG_VALUE: ktime_compare:cmp1 <- $x21
	//DEBUG_VALUE: io_submit_intrvl_l_than:base <- $x21
	//DEBUG_VALUE: ktime_before:cmp1 <- $x21
	//DEBUG_VALUE: ktime_compare:cmp1 <- $x21
	.loc	1 622 2                 // kernel/block/mas_blk_iosched_ufs_mq.c:622:2
	cmp	w8, #1                  // =1
	b.eq	.LBB13_7
.Ltmp415:
// %bb.4:
	//DEBUG_VALUE: ufs_mq_sync_burst_dispatch_check:now_ktime <- $x21
	//DEBUG_VALUE: ufs_mq_sync_burst_dispatch_check:ds_lld <- $x22
	//DEBUG_VALUE: ufs_mq_make_request:bio <- $x19
	//DEBUG_VALUE: ufs_mq_make_request:q <- $x20
	cbnz	w8, .LBB13_9
.Ltmp416:
// %bb.5:
	//DEBUG_VALUE: ufs_mq_sync_burst_dispatch_check:now_ktime <- $x21
	//DEBUG_VALUE: ufs_mq_sync_burst_dispatch_check:ds_lld <- $x22
	//DEBUG_VALUE: ufs_mq_make_request:bio <- $x19
	//DEBUG_VALUE: ufs_mq_make_request:q <- $x20
	//DEBUG_VALUE: io_submit_intrvl_l_than:ms <- 10
	.loc	1 501 30                // kernel/block/mas_blk_iosched_ufs_mq.c:501:30
	ldr	x8, [x22, #184]
	mov	w9, #38528
	movk	w9, #152, lsl #16
.Ltmp417:
	//DEBUG_VALUE: ktime_add_ms:msec <- 10
	//DEBUG_VALUE: ktime_add_ms:kt <- $x8
	.loc	26 200 9                // kernel/include/linux/ktime.h:200:9
	add	x8, x8, x9
.Ltmp418:
	//DEBUG_VALUE: ktime_compare:cmp2 <- $x8
	//DEBUG_VALUE: ktime_before:cmp2 <- $x8
	.loc	1 624 7                 // kernel/block/mas_blk_iosched_ufs_mq.c:624:7
	cmp	x8, x21
	b.le	.LBB13_9
.Ltmp419:
// %bb.6:
	//DEBUG_VALUE: ufs_mq_sync_burst_dispatch_check:now_ktime <- $x21
	//DEBUG_VALUE: ufs_mq_sync_burst_dispatch_check:ds_lld <- $x22
	//DEBUG_VALUE: ufs_mq_make_request:bio <- $x19
	//DEBUG_VALUE: ufs_mq_make_request:q <- $x20
	.loc	1 0 7 is_stmt 0         // kernel/block/mas_blk_iosched_ufs_mq.c:0:7
	orr	w8, wzr, #0x1
.Ltmp420:
	//DEBUG_VALUE: __write_once_size:size <- 4
	//DEBUG_VALUE: __write_once_size:res <- undef
	.loc	1 626 36 is_stmt 1      // kernel/block/mas_blk_iosched_ufs_mq.c:626:36
	str	x21, [x22, #192]
.Ltmp421:
	.loc	154 209 31              // kernel/include/linux/compiler.h:209:31
	str	w8, [x22, #272]
.Ltmp422:
	.loc	1 630 5                 // kernel/block/mas_blk_iosched_ufs_mq.c:630:5
	adrp	x8, jiffies
	ldr	x8, [x8, :lo12:jiffies]
	.loc	1 629 23                // kernel/block/mas_blk_iosched_ufs_mq.c:629:23
	add	x0, x22, #224           // =224
	.loc	1 630 13                // kernel/block/mas_blk_iosched_ufs_mq.c:630:13
	add	x1, x8, #3              // =3
	.loc	1 629 4                 // kernel/block/mas_blk_iosched_ufs_mq.c:629:4
	bl	mod_timer
	b	.LBB13_9
.Ltmp423:
.LBB13_7:
	//DEBUG_VALUE: ktime_compare:cmp1 <- $x21
	//DEBUG_VALUE: ktime_before:cmp1 <- $x21
	//DEBUG_VALUE: io_submit_intrvl_l_than:base <- $x21
	//DEBUG_VALUE: ufs_mq_sync_burst_dispatch_check:now_ktime <- $x21
	//DEBUG_VALUE: io_submit_intrvl_l_than:ds_lld <- $x22
	//DEBUG_VALUE: ufs_mq_sync_burst_dispatch_check:ds_lld <- $x22
	//DEBUG_VALUE: ufs_mq_make_request:bio <- $x19
	//DEBUG_VALUE: ufs_mq_make_request:q <- $x20
	//DEBUG_VALUE: io_submit_intrvl_l_than:ms <- 10
	.loc	1 501 30                // kernel/block/mas_blk_iosched_ufs_mq.c:501:30
	ldr	x8, [x22, #184]
	mov	w9, #38528
	movk	w9, #152, lsl #16
.Ltmp424:
	//DEBUG_VALUE: ktime_add_ms:msec <- 10
	//DEBUG_VALUE: ktime_add_ms:kt <- $x8
	.loc	26 200 9                // kernel/include/linux/ktime.h:200:9
	add	x8, x8, x9
.Ltmp425:
	//DEBUG_VALUE: ktime_compare:cmp2 <- $x8
	//DEBUG_VALUE: ktime_before:cmp2 <- $x8
	.loc	1 634 7                 // kernel/block/mas_blk_iosched_ufs_mq.c:634:7
	cmp	x8, x21
	b.le	.LBB13_9
.Ltmp426:
// %bb.8:
	//DEBUG_VALUE: ufs_mq_sync_burst_dispatch_check:now_ktime <- $x21
	//DEBUG_VALUE: ufs_mq_sync_burst_dispatch_check:ds_lld <- $x22
	//DEBUG_VALUE: ufs_mq_make_request:bio <- $x19
	//DEBUG_VALUE: ufs_mq_make_request:q <- $x20
	//DEBUG_VALUE: __write_once_size:res <- undef
	.loc	1 0 7 is_stmt 0         // kernel/block/mas_blk_iosched_ufs_mq.c:0:7
	orr	w8, wzr, #0x2
.Ltmp427:
	//DEBUG_VALUE: __write_once_size:size <- 4
	.loc	154 209 31 is_stmt 1    // kernel/include/linux/compiler.h:209:31
	str	w8, [x22, #272]
.Ltmp428:
.LBB13_9:
	//DEBUG_VALUE: ufs_mq_sync_burst_dispatch_check:now_ktime <- $x21
	//DEBUG_VALUE: ufs_mq_sync_burst_dispatch_check:ds_lld <- $x22
	//DEBUG_VALUE: ufs_mq_make_request:bio <- $x19
	//DEBUG_VALUE: ufs_mq_make_request:q <- $x20
	.loc	1 642 33                // kernel/block/mas_blk_iosched_ufs_mq.c:642:33
	str	x21, [x22, #184]
.Ltmp429:
	//DEBUG_VALUE: ufs_mq_get_plug:is_flush_fua <- undef
	//DEBUG_VALUE: ufs_mq_get_plug:bio <- $x19
	.loc	1 1682 18               // kernel/block/mas_blk_iosched_ufs_mq.c:1682:18
	ldrb	w8, [x19, #18]
	tst	w8, #0xc
	b.ne	.LBB13_12
.Ltmp430:
// %bb.10:
	//DEBUG_VALUE: ufs_mq_get_plug:bio <- $x19
	//DEBUG_VALUE: ufs_mq_make_request:bio <- $x19
	//DEBUG_VALUE: ufs_mq_make_request:q <- $x20
	//DEBUG_VALUE: ufs_mq_get_current_plug:bio <- $x19
	.loc	158 19 2                // kernel/arch/arm64/include/asm/current.h:19:2
	//APP
	mrs x8, sp_el0
	//NO_APP
.Ltmp431:
	//DEBUG_VALUE: get_current:sp_el0 <- $x8
	//DEBUG_VALUE: get_current:sp_el0 <- $x8
	//DEBUG_VALUE: get_current:sp_el0 <- $x8
	//DEBUG_VALUE: get_current:sp_el0 <- $x8
	//DEBUG_VALUE: get_current:sp_el0 <- $x8
	.loc	1 1567 6                // kernel/block/mas_blk_iosched_ufs_mq.c:1567:6
	ldr	x9, [x8, #2664]
.Ltmp432:
	.loc	1 1567 6 is_stmt 0      // kernel/block/mas_blk_iosched_ufs_mq.c:1567:6
	cbz	x9, .LBB13_12
.Ltmp433:
// %bb.11:
	//DEBUG_VALUE: ufs_mq_get_current_plug:bio <- $x19
	//DEBUG_VALUE: ufs_mq_get_plug:bio <- $x19
	//DEBUG_VALUE: ufs_mq_make_request:bio <- $x19
	//DEBUG_VALUE: ufs_mq_make_request:q <- $x20
	.loc	1 1569 19 is_stmt 1     // kernel/block/mas_blk_iosched_ufs_mq.c:1569:19
	ldr	w10, [x19, #56]
.Ltmp434:
	.loc	1 1569 6 is_stmt 0      // kernel/block/mas_blk_iosched_ufs_mq.c:1569:6
	cmp	w10, #128, lsl #12      // =524288
	b.ls	.LBB13_35
.Ltmp435:
.LBB13_12:
	//DEBUG_VALUE: ufs_mq_get_plug:bio <- $x19
	//DEBUG_VALUE: ufs_mq_make_request:bio <- $x19
	//DEBUG_VALUE: ufs_mq_make_request:q <- $x20
	.loc	1 0 6                   // kernel/block/mas_blk_iosched_ufs_mq.c:0:6
	mov	x25, xzr
.Ltmp436:
.LBB13_13:
	//DEBUG_VALUE: ufs_mq_make_request:bio <- $x19
	//DEBUG_VALUE: ufs_mq_make_request:q <- $x20
	mov	w22, wzr
	.loc	1 1713 18 is_stmt 1     // kernel/block/mas_blk_iosched_ufs_mq.c:1713:18
	mov	x23, xzr
	orr	w26, wzr, #0x1
.Ltmp437:
.LBB13_14:
	//DEBUG_VALUE: ufs_mq_make_request:bio <- $x19
	//DEBUG_VALUE: ufs_mq_make_request:q <- $x20
	//DEBUG_VALUE: ufs_mq_make_request:same_queue_rq <- $x23
	//DEBUG_VALUE: ufs_mq_req_add_pluglist:rq <- $x23
	//DEBUG_VALUE: ufs_mq_req_add_pluglist:sameq_rq <- $x23
	//DEBUG_VALUE: ufs_mq_make_sync_request:same_queue_rq <- $x23
	.loc	1 1738 24               // kernel/block/mas_blk_iosched_ufs_mq.c:1738:24
	ldr	x0, [x20, #88]
	.loc	1 1738 12 is_stmt 0     // kernel/block/mas_blk_iosched_ufs_mq.c:1738:12
	mov	x1, x19
	mov	x2, xzr
	bl	wbt_wait
	mov	w24, w0
.Ltmp438:
	//DEBUG_VALUE: wbt_track:wb_acct <- $w24
	//DEBUG_VALUE: ufs_mq_make_request:wb_acct <- $w24
	.loc	1 1740 2 is_stmt 1      // kernel/block/mas_blk_iosched_ufs_mq.c:1740:2
	orr	w1, wzr, #0x3
	mov	x0, x19
	bl	mas_blk_latency_bio_check
	.loc	1 1742 39               // kernel/block/mas_blk_iosched_ufs_mq.c:1742:39
	ldr	w2, [x19, #16]
.Ltmp439:
	//DEBUG_VALUE: ufs_mq_make_request:alloc_data <- [DW_OP_plus_uconst 16, DW_OP_deref] $sp
	.loc	1 1742 7 is_stmt 0      // kernel/block/mas_blk_iosched_ufs_mq.c:1742:7
	add	x3, sp, #16             // =16
	mov	x0, x20
	mov	x1, x19
	bl	blk_mq_get_request
	.loc	1 1743 6 is_stmt 1      // kernel/block/mas_blk_iosched_ufs_mq.c:1743:6
	cbz	x0, .LBB13_50
.Ltmp440:
// %bb.15:
	//DEBUG_VALUE: ufs_mq_make_request:alloc_data <- [DW_OP_plus_uconst 16, DW_OP_deref] $sp
	//DEBUG_VALUE: ufs_mq_make_request:wb_acct <- $w24
	//DEBUG_VALUE: wbt_track:wb_acct <- $w24
	//DEBUG_VALUE: ufs_mq_make_sync_request:same_queue_rq <- $x23
	//DEBUG_VALUE: ufs_mq_req_add_pluglist:sameq_rq <- $x23
	//DEBUG_VALUE: ufs_mq_req_add_pluglist:rq <- $x23
	//DEBUG_VALUE: ufs_mq_make_request:same_queue_rq <- $x23
	//DEBUG_VALUE: ufs_mq_make_request:bio <- $x19
	//DEBUG_VALUE: ufs_mq_make_request:q <- $x20
	.loc	1 1760 6                // kernel/block/mas_blk_iosched_ufs_mq.c:1760:6
	ldrb	w8, [x0, #84]
.Ltmp441:
	.loc	1 0 0 is_stmt 0         // kernel/block/mas_blk_iosched_ufs_mq.c:0:0
	mov	x21, x0
.Ltmp442:
	//DEBUG_VALUE: ufs_mq_make_request:rq <- $x21
	//DEBUG_VALUE: ufs_mq_bio_to_request:rq <- $x21
	//DEBUG_VALUE: ufs_mq_bio_to_request:rq <- $x21
	//DEBUG_VALUE: blk_rq_is_scsi:rq <- $x21
	//DEBUG_VALUE: ufs_mq_merge_queue_io:rq <- $x21
	//DEBUG_VALUE: ufs_mq_make_sync_request_get_ret:rq <- $x21
	//DEBUG_VALUE: ufs_mq_req_add_pluglist:disp_rq <- $x21
	//DEBUG_VALUE: ufs_mq_bio_to_request:rq <- $x21
	//DEBUG_VALUE: ufs_mq_make_sync_request:rq <- $x21
	//DEBUG_VALUE: ufs_mq_bio_to_request:rq <- $x21
	//DEBUG_VALUE: ufs_mq_make_flush_request:rq <- $x21
	//DEBUG_VALUE: wbt_track:stat <- [DW_OP_plus_uconst 504, DW_OP_stack_value] $x21
	.loc	1 1760 33               // kernel/block/mas_blk_iosched_ufs_mq.c:1760:33
	orr	w8, w8, #0x2
	cmp	w8, #3                  // =3
	b.ne	.LBB13_17
.Ltmp443:
// %bb.16:
	//DEBUG_VALUE: ufs_mq_make_request:rq <- $x21
	//DEBUG_VALUE: ufs_mq_make_request:alloc_data <- [DW_OP_plus_uconst 16, DW_OP_deref] $sp
	//DEBUG_VALUE: ufs_mq_make_request:wb_acct <- $w24
	//DEBUG_VALUE: ufs_mq_make_request:same_queue_rq <- $x23
	//DEBUG_VALUE: ufs_mq_make_request:bio <- $x19
	//DEBUG_VALUE: ufs_mq_make_request:q <- $x20
	.loc	1 1762 3 is_stmt 1      // kernel/block/mas_blk_iosched_ufs_mq.c:1762:3
	mov	x0, x21
	bl	blk_req_set_make_req_nr
.Ltmp444:
.LBB13_17:
	//DEBUG_VALUE: ufs_mq_make_request:rq <- $x21
	//DEBUG_VALUE: ufs_mq_make_request:alloc_data <- [DW_OP_plus_uconst 16, DW_OP_deref] $sp
	//DEBUG_VALUE: ufs_mq_make_request:wb_acct <- $w24
	//DEBUG_VALUE: ufs_mq_make_request:same_queue_rq <- $x23
	//DEBUG_VALUE: ufs_mq_make_request:bio <- $x19
	//DEBUG_VALUE: ufs_mq_make_request:q <- $x20
	.loc	146 49 13               // kernel/block/blk-wbt.h:49:13
	ldr	x8, [x21, #504]
.Ltmp445:
	.loc	1 1773 11               // kernel/block/mas_blk_iosched_ufs_mq.c:1773:11
	mov	x1, x21
.Ltmp446:
	.loc	146 49 13               // kernel/block/blk-wbt.h:49:13
	orr	x8, x8, x24, lsl #61
	str	x8, [x21, #504]
.Ltmp447:
	.loc	1 1773 38               // kernel/block/mas_blk_iosched_ufs_mq.c:1773:38
	ldr	x0, [sp, #64]
	.loc	1 1773 11 is_stmt 0     // kernel/block/mas_blk_iosched_ufs_mq.c:1773:11
	bl	request_to_qc_t
.Ltmp448:
	.loc	1 1775 32 is_stmt 1     // kernel/block/mas_blk_iosched_ufs_mq.c:1775:32
	ldr	w8, [x19, #16]
.Ltmp449:
	.loc	1 1773 11               // kernel/block/mas_blk_iosched_ufs_mq.c:1773:11
	mov	w20, w0
.Ltmp450:
	//DEBUG_VALUE: ufs_mq_make_request:cookie <- $w20
	//DEBUG_VALUE: ufs_mq_make_flush_request:bio <- $x19
	.loc	1 1775 32               // kernel/block/mas_blk_iosched_ufs_mq.c:1775:32
	and	w9, w8, #0xff
	//DEBUG_VALUE: ufs_mq_make_flush_request:bio <- $x19
.Ltmp451:
	//DEBUG_VALUE: ufs_mq_make_flush_request:dispatch_op <- $w9
	.loc	1 1606 6                // kernel/block/mas_blk_iosched_ufs_mq.c:1606:6
	cmp	w9, #2                  // =2
	b.eq	.LBB13_49
.Ltmp452:
// %bb.18:
	//DEBUG_VALUE: ufs_mq_make_flush_request:dispatch_op <- $w9
	//DEBUG_VALUE: ufs_mq_make_flush_request:bio <- $x19
	//DEBUG_VALUE: ufs_mq_make_request:cookie <- $w20
	//DEBUG_VALUE: ufs_mq_make_request:rq <- $x21
	//DEBUG_VALUE: ufs_mq_make_request:alloc_data <- [DW_OP_plus_uconst 16, DW_OP_deref] $sp
	//DEBUG_VALUE: ufs_mq_make_request:wb_acct <- $w24
	//DEBUG_VALUE: ufs_mq_make_request:same_queue_rq <- $x23
	//DEBUG_VALUE: ufs_mq_make_request:bio <- $x19
	tbnz	w8, #19, .LBB13_49
.Ltmp453:
// %bb.19:
	//DEBUG_VALUE: ufs_mq_make_request:cookie <- $w20
	//DEBUG_VALUE: ufs_mq_make_request:rq <- $x21
	//DEBUG_VALUE: ufs_mq_make_request:alloc_data <- [DW_OP_plus_uconst 16, DW_OP_deref] $sp
	//DEBUG_VALUE: ufs_mq_make_request:wb_acct <- $w24
	//DEBUG_VALUE: ufs_mq_make_request:same_queue_rq <- $x23
	//DEBUG_VALUE: ufs_mq_make_request:bio <- $x19
	.loc	1 1778 6                // kernel/block/mas_blk_iosched_ufs_mq.c:1778:6
	ldr	w9, [x21, #84]
.Ltmp454:
	.loc	1 1778 6 is_stmt 0      // kernel/block/mas_blk_iosched_ufs_mq.c:1778:6
	tbz	w9, #11, .LBB13_52
.Ltmp455:
// %bb.20:
	//DEBUG_VALUE: ufs_mq_make_request:cookie <- $w20
	//DEBUG_VALUE: ufs_mq_make_request:rq <- $x21
	//DEBUG_VALUE: ufs_mq_make_request:alloc_data <- [DW_OP_plus_uconst 16, DW_OP_deref] $sp
	//DEBUG_VALUE: ufs_mq_make_request:wb_acct <- $w24
	//DEBUG_VALUE: ufs_mq_make_request:same_queue_rq <- $x23
	//DEBUG_VALUE: ufs_mq_make_request:bio <- $x19
	//DEBUG_VALUE: ufs_mq_make_request:alloc_data <- [DW_OP_plus_uconst 16, DW_OP_deref] $sp
	//DEBUG_VALUE: ufs_mq_make_sync_request:bio <- $x19
	//DEBUG_VALUE: ufs_mq_make_sync_request:alloc_data <- [DW_OP_plus_uconst 16] $sp
	.loc	1 1646 35 is_stmt 1     // kernel/block/mas_blk_iosched_ufs_mq.c:1646:35
	ldr	x8, [x21, #64]
.Ltmp456:
	.loc	1 1424 2                // kernel/block/mas_blk_iosched_ufs_mq.c:1424:2
	mov	x0, x21
	mov	x1, x19
.Ltmp457:
	.loc	1 1646 48               // kernel/block/mas_blk_iosched_ufs_mq.c:1646:48
	ldr	x22, [x8, #1800]
.Ltmp458:
	//DEBUG_VALUE: ufs_mq_bio_to_request:bio <- $x19
	//DEBUG_VALUE: ufs_mq_make_sync_request:sched_ds <- $x22
	//DEBUG_VALUE: ufs_mq_make_sync_request_get_ret:sched_ds <- $x22
	.loc	1 1424 2                // kernel/block/mas_blk_iosched_ufs_mq.c:1424:2
	bl	blk_init_request_from_bio
	.loc	1 1425 2                // kernel/block/mas_blk_iosched_ufs_mq.c:1425:2
	orr	w1, wzr, #0x1
	mov	x0, x21
	bl	blk_account_io_start
.Ltmp459:
	//DEBUG_VALUE: ufs_mq_req_add_pluglist:rq <- 0
	.loc	1 1587 6                // kernel/block/mas_blk_iosched_ufs_mq.c:1587:6
	cbnz	w26, .LBB13_63
.Ltmp460:
// %bb.21:
	//DEBUG_VALUE: ufs_mq_make_sync_request:sched_ds <- $x22
	//DEBUG_VALUE: ufs_mq_make_sync_request:alloc_data <- [DW_OP_plus_uconst 16] $sp
	//DEBUG_VALUE: ufs_mq_make_sync_request:bio <- $x19
	//DEBUG_VALUE: ufs_mq_make_request:cookie <- $w20
	//DEBUG_VALUE: ufs_mq_make_request:rq <- $x21
	//DEBUG_VALUE: ufs_mq_make_request:alloc_data <- [DW_OP_plus_uconst 16, DW_OP_deref] $sp
	//DEBUG_VALUE: ufs_mq_make_request:wb_acct <- $w24
	//DEBUG_VALUE: ufs_mq_make_request:same_queue_rq <- $x23
	//DEBUG_VALUE: ufs_mq_make_request:bio <- $x19
	.loc	1 1588 7                // kernel/block/mas_blk_iosched_ufs_mq.c:1588:7
	cbz	x23, .LBB13_24
.Ltmp461:
// %bb.22:
	//DEBUG_VALUE: ufs_mq_make_sync_request:sched_ds <- $x22
	//DEBUG_VALUE: ufs_mq_make_sync_request:alloc_data <- [DW_OP_plus_uconst 16] $sp
	//DEBUG_VALUE: ufs_mq_make_sync_request:bio <- $x19
	//DEBUG_VALUE: ufs_mq_make_request:cookie <- $w20
	//DEBUG_VALUE: ufs_mq_make_request:rq <- $x21
	//DEBUG_VALUE: ufs_mq_make_request:alloc_data <- [DW_OP_plus_uconst 16, DW_OP_deref] $sp
	//DEBUG_VALUE: ufs_mq_make_request:wb_acct <- $w24
	//DEBUG_VALUE: ufs_mq_make_request:same_queue_rq <- $x23
	//DEBUG_VALUE: ufs_mq_make_request:bio <- $x19
	//DEBUG_VALUE: __read_once_size:res <- undef
	//DEBUG_VALUE: __read_once_size:size <- 8
	//DEBUG_VALUE: list_empty:head <- undef
	//DEBUG_VALUE: __read_once_size:p <- undef
	.loc	154 183 2               // kernel/include/linux/compiler.h:183:2
	mov	x8, x25
	ldr	x9, [x8, #48]!
.Ltmp462:
	.loc	1 1588 7                // kernel/block/mas_blk_iosched_ufs_mq.c:1588:7
	cmp	x8, x9
	b.eq	.LBB13_64
.Ltmp463:
// %bb.23:
	//DEBUG_VALUE: ufs_mq_make_sync_request:sched_ds <- $x22
	//DEBUG_VALUE: ufs_mq_make_sync_request:alloc_data <- [DW_OP_plus_uconst 16] $sp
	//DEBUG_VALUE: ufs_mq_make_sync_request:bio <- $x19
	//DEBUG_VALUE: ufs_mq_make_request:cookie <- $w20
	//DEBUG_VALUE: ufs_mq_make_request:rq <- $x21
	//DEBUG_VALUE: ufs_mq_make_request:alloc_data <- [DW_OP_plus_uconst 16, DW_OP_deref] $sp
	//DEBUG_VALUE: ufs_mq_make_request:wb_acct <- $w24
	//DEBUG_VALUE: ufs_mq_make_request:same_queue_rq <- $x23
	//DEBUG_VALUE: ufs_mq_make_request:bio <- $x19
	//DEBUG_VALUE: list_del_init:entry <- $x23
	//DEBUG_VALUE: __list_del_entry:entry <- $x23
	.loc	157 120 33              // kernel/include/linux/list.h:120:33
	ldp	x8, x9, [x23]
.Ltmp464:
	//DEBUG_VALUE: __list_del:prev <- $x9
	//DEBUG_VALUE: __list_del:next <- $x8
	.loc	157 105 13              // kernel/include/linux/list.h:105:13
	str	x9, [x8, #8]
.Ltmp465:
	//DEBUG_VALUE: __write_once_size:p <- $x9
	//DEBUG_VALUE: __write_once_size:size <- 8
	//DEBUG_VALUE: __write_once_size:res <- undef
	.loc	154 210 31              // kernel/include/linux/compiler.h:210:31
	str	x8, [x9]
.Ltmp466:
	//DEBUG_VALUE: __write_once_size:p <- $x23
	//DEBUG_VALUE: __write_once_size:size <- 8
	//DEBUG_VALUE: __write_once_size:res <- undef
	//DEBUG_VALUE: INIT_LIST_HEAD:list <- $x23
	.loc	154 210 31 is_stmt 0    // kernel/include/linux/compiler.h:210:31
	str	x23, [x23]
.Ltmp467:
	.loc	157 29 13 is_stmt 1     // kernel/include/linux/list.h:29:13
	str	x23, [x23, #8]
.Ltmp468:
.LBB13_24:
	//DEBUG_VALUE: ufs_mq_make_sync_request:sched_ds <- $x22
	//DEBUG_VALUE: ufs_mq_make_sync_request:alloc_data <- [DW_OP_plus_uconst 16] $sp
	//DEBUG_VALUE: ufs_mq_make_sync_request:bio <- $x19
	//DEBUG_VALUE: ufs_mq_make_request:cookie <- $w20
	//DEBUG_VALUE: ufs_mq_make_request:rq <- $x21
	//DEBUG_VALUE: ufs_mq_make_request:alloc_data <- [DW_OP_plus_uconst 16, DW_OP_deref] $sp
	//DEBUG_VALUE: ufs_mq_make_request:wb_acct <- $w24
	//DEBUG_VALUE: ufs_mq_make_request:bio <- $x19
	//DEBUG_VALUE: ufs_mq_req_add_pluglist:rq <- $x23
	//DEBUG_VALUE: list_add_tail:new <- $x21
	.loc	157 93 24               // kernel/include/linux/list.h:93:24
	ldr	x8, [x25, #56]
.Ltmp469:
	.loc	1 1593 44               // kernel/block/mas_blk_iosched_ufs_mq.c:1593:44
	add	x9, x25, #48            // =48
.Ltmp470:
	//DEBUG_VALUE: list_add_tail:head <- $x9
	//DEBUG_VALUE: __list_add:next <- $x9
	//DEBUG_VALUE: __list_add:prev <- $x8
	//DEBUG_VALUE: __list_add:new <- $x21
	.loc	1 1594 3                // kernel/block/mas_blk_iosched_ufs_mq.c:1594:3
	orr	w1, wzr, #0x6
	mov	x0, x21
.Ltmp471:
	.loc	157 63 13               // kernel/include/linux/list.h:63:13
	str	x21, [x25, #56]
	//DEBUG_VALUE: list_add_tail:new <- $x21
	.loc	157 64 12               // kernel/include/linux/list.h:64:12
	stp	x9, x8, [x21]
.Ltmp472:
	//DEBUG_VALUE: __write_once_size:p <- $x8
	//DEBUG_VALUE: __write_once_size:size <- 8
	//DEBUG_VALUE: __write_once_size:res <- undef
	.loc	154 210 31              // kernel/include/linux/compiler.h:210:31
	str	x21, [x8]
.Ltmp473:
	.loc	1 1594 3                // kernel/block/mas_blk_iosched_ufs_mq.c:1594:3
	bl	mas_blk_latency_req_check
.Ltmp474:
	.loc	1 1657 8                // kernel/block/mas_blk_iosched_ufs_mq.c:1657:8
	str	x23, [sp, #72]
.Ltmp475:
	//DEBUG_VALUE: ufs_mq_make_sync_request_get_ret:alloc_data <- [DW_OP_plus_uconst 16] $sp
	//DEBUG_VALUE: ufs_mq_make_sync_request_get_ret:bd <- [DW_OP_plus_uconst 72] $sp
	//DEBUG_VALUE: ufs_mq_make_sync_request:bd <- [DW_OP_plus_uconst 72, DW_OP_deref] $sp
	.loc	1 1636 9                // kernel/block/mas_blk_iosched_ufs_mq.c:1636:9
	cbz	x23, .LBB13_26
.Ltmp476:
.LBB13_25:
	//DEBUG_VALUE: ufs_mq_make_sync_request:bd <- [DW_OP_plus_uconst 72, DW_OP_deref] $sp
	//DEBUG_VALUE: ufs_mq_make_sync_request_get_ret:bd <- [DW_OP_plus_uconst 72] $sp
	//DEBUG_VALUE: ufs_mq_make_sync_request_get_ret:alloc_data <- [DW_OP_plus_uconst 16] $sp
	//DEBUG_VALUE: ufs_mq_make_sync_request:sched_ds <- $x22
	//DEBUG_VALUE: ufs_mq_make_sync_request:alloc_data <- [DW_OP_plus_uconst 16] $sp
	//DEBUG_VALUE: ufs_mq_make_sync_request:bio <- $x19
	//DEBUG_VALUE: ufs_mq_make_request:cookie <- $w20
	//DEBUG_VALUE: ufs_mq_make_request:rq <- $x21
	//DEBUG_VALUE: ufs_mq_make_request:alloc_data <- [DW_OP_plus_uconst 16, DW_OP_deref] $sp
	//DEBUG_VALUE: ufs_mq_make_request:wb_acct <- $w24
	//DEBUG_VALUE: ufs_mq_make_request:bio <- $x19
	.loc	1 1636 56 is_stmt 0     // kernel/block/mas_blk_iosched_ufs_mq.c:1636:56
	ldr	x1, [sp, #64]
	.loc	1 1637 13 is_stmt 1     // kernel/block/mas_blk_iosched_ufs_mq.c:1637:13
	ldr	x2, [x22, #280]
	.loc	1 1637 35 is_stmt 0     // kernel/block/mas_blk_iosched_ufs_mq.c:1637:35
	ldr	x4, [x21, #64]
	.loc	1 1636 18 is_stmt 1     // kernel/block/mas_blk_iosched_ufs_mq.c:1636:18
	add	x3, sp, #72             // =72
	mov	x0, x23
	bl	__ufs_mq_queue_rq
	mov	w19, w0
.Ltmp477:
	.loc	1 0 18 is_stmt 0        // kernel/block/mas_blk_iosched_ufs_mq.c:0:18
	b	.LBB13_27
.Ltmp478:
.LBB13_26:
	//DEBUG_VALUE: ufs_mq_make_sync_request:bd <- [DW_OP_plus_uconst 72, DW_OP_deref] $sp
	//DEBUG_VALUE: ufs_mq_make_sync_request_get_ret:bd <- [DW_OP_plus_uconst 72] $sp
	//DEBUG_VALUE: ufs_mq_make_sync_request_get_ret:alloc_data <- [DW_OP_plus_uconst 16] $sp
	//DEBUG_VALUE: ufs_mq_make_sync_request:sched_ds <- $x22
	//DEBUG_VALUE: ufs_mq_make_sync_request:alloc_data <- [DW_OP_plus_uconst 16] $sp
	//DEBUG_VALUE: ufs_mq_make_sync_request:bio <- $x19
	//DEBUG_VALUE: ufs_mq_make_request:cookie <- $w20
	//DEBUG_VALUE: ufs_mq_make_request:rq <- $x21
	//DEBUG_VALUE: ufs_mq_make_request:alloc_data <- [DW_OP_plus_uconst 16, DW_OP_deref] $sp
	//DEBUG_VALUE: ufs_mq_make_request:wb_acct <- $w24
	//DEBUG_VALUE: ufs_mq_make_request:bio <- $x19
	.loc	1 1636 9                // kernel/block/mas_blk_iosched_ufs_mq.c:1636:9
	mov	w19, wzr
.Ltmp479:
.LBB13_27:
	//DEBUG_VALUE: ufs_mq_make_sync_request:bd <- [DW_OP_plus_uconst 72, DW_OP_deref] $sp
	//DEBUG_VALUE: ufs_mq_make_sync_request:sched_ds <- $x22
	//DEBUG_VALUE: ufs_mq_make_sync_request:alloc_data <- [DW_OP_plus_uconst 16] $sp
	//DEBUG_VALUE: ufs_mq_make_request:cookie <- $w20
	//DEBUG_VALUE: ufs_mq_make_request:rq <- $x21
	//DEBUG_VALUE: ufs_mq_make_request:alloc_data <- [DW_OP_plus_uconst 16, DW_OP_deref] $sp
	//DEBUG_VALUE: ufs_mq_make_request:wb_acct <- $w24
	//DEBUG_VALUE: ufs_mq_make_sync_request:ret <- $w19
	.loc	1 1659 29 is_stmt 1     // kernel/block/mas_blk_iosched_ufs_mq.c:1659:29
	ldr	x8, [sp, #56]
.Ltmp480:
	//DEBUG_VALUE: blk_mq_put_ctx:ctx <- $x8
	.loc	9 115 11                // kernel/block/blk-mq.h:115:11
	ldr	x8, [x8, #144]
.Ltmp481:
	.loc	9 115 18 is_stmt 0      // kernel/block/blk-mq.h:115:18
	ldr	x8, [x8, #1808]
	.loc	9 115 32                // kernel/block/blk-mq.h:115:32
	cbz	x8, .LBB13_30
.Ltmp482:
// %bb.28:
	//DEBUG_VALUE: ufs_mq_make_sync_request:ret <- $w19
	//DEBUG_VALUE: ufs_mq_make_sync_request:bd <- [DW_OP_plus_uconst 72, DW_OP_deref] $sp
	//DEBUG_VALUE: ufs_mq_make_sync_request:sched_ds <- $x22
	//DEBUG_VALUE: ufs_mq_make_sync_request:alloc_data <- [DW_OP_plus_uconst 16] $sp
	//DEBUG_VALUE: ufs_mq_make_request:cookie <- $w20
	//DEBUG_VALUE: ufs_mq_make_request:rq <- $x21
	//DEBUG_VALUE: ufs_mq_make_request:alloc_data <- [DW_OP_plus_uconst 16, DW_OP_deref] $sp
	//DEBUG_VALUE: ufs_mq_make_request:wb_acct <- $w24
	.loc	9 115 62                // kernel/block/blk-mq.h:115:62
	ldr	x8, [x8, #80]
.Ltmp483:
	.loc	9 115 6                 // kernel/block/blk-mq.h:115:6
	cbz	x8, .LBB13_30
.Ltmp484:
// %bb.29:
	//DEBUG_VALUE: ufs_mq_make_sync_request:ret <- $w19
	//DEBUG_VALUE: ufs_mq_make_sync_request:bd <- [DW_OP_plus_uconst 72, DW_OP_deref] $sp
	//DEBUG_VALUE: ufs_mq_make_sync_request:sched_ds <- $x22
	//DEBUG_VALUE: ufs_mq_make_sync_request:alloc_data <- [DW_OP_plus_uconst 16] $sp
	//DEBUG_VALUE: ufs_mq_make_request:cookie <- $w20
	//DEBUG_VALUE: ufs_mq_make_request:rq <- $x21
	//DEBUG_VALUE: ufs_mq_make_request:alloc_data <- [DW_OP_plus_uconst 16, DW_OP_deref] $sp
	//DEBUG_VALUE: ufs_mq_make_request:wb_acct <- $w24
	.loc	9 116 3 is_stmt 1       // kernel/block/blk-mq.h:116:3
	blr	x8
.Ltmp485:
	.loc	1 1660 6                // kernel/block/mas_blk_iosched_ufs_mq.c:1660:6
	cbz	w19, .LBB13_33
	b	.LBB13_67
.Ltmp486:
.LBB13_30:
	//DEBUG_VALUE: ufs_mq_make_sync_request:ret <- $w19
	//DEBUG_VALUE: ufs_mq_make_sync_request:bd <- [DW_OP_plus_uconst 72, DW_OP_deref] $sp
	//DEBUG_VALUE: ufs_mq_make_sync_request:sched_ds <- $x22
	//DEBUG_VALUE: ufs_mq_make_sync_request:alloc_data <- [DW_OP_plus_uconst 16] $sp
	//DEBUG_VALUE: ufs_mq_make_request:cookie <- $w20
	//DEBUG_VALUE: ufs_mq_make_request:rq <- $x21
	//DEBUG_VALUE: ufs_mq_make_request:alloc_data <- [DW_OP_plus_uconst 16, DW_OP_deref] $sp
	//DEBUG_VALUE: ufs_mq_make_request:wb_acct <- $w24
	.loc	9 119 3                 // kernel/block/blk-mq.h:119:3
	//APP
	//NO_APP
.Ltmp487:
	.loc	158 19 2                // kernel/arch/arm64/include/asm/current.h:19:2
	//APP
	mrs x8, sp_el0
	//NO_APP
.Ltmp488:
	//DEBUG_VALUE: test_ti_thread_flag:ti <- $x8
	//DEBUG_VALUE: get_current:sp_el0 <- $x8
	//DEBUG_VALUE: get_current:sp_el0 <- $x8
	.loc	159 69 10               // kernel/include/asm-generic/preempt.h:69:10
	ldr	w9, [x8, #24]
	subs	w9, w9, #1              // =1
	str	w9, [x8, #24]
	.loc	159 69 33 is_stmt 0     // kernel/include/asm-generic/preempt.h:69:33
	b.ne	.LBB13_32
.Ltmp489:
// %bb.31:
	//DEBUG_VALUE: test_ti_thread_flag:ti <- $x8
	//DEBUG_VALUE: ufs_mq_make_sync_request:ret <- $w19
	//DEBUG_VALUE: ufs_mq_make_sync_request:bd <- [DW_OP_plus_uconst 72, DW_OP_deref] $sp
	//DEBUG_VALUE: ufs_mq_make_sync_request:sched_ds <- $x22
	//DEBUG_VALUE: ufs_mq_make_sync_request:alloc_data <- [DW_OP_plus_uconst 16] $sp
	//DEBUG_VALUE: ufs_mq_make_request:cookie <- $w20
	//DEBUG_VALUE: ufs_mq_make_request:rq <- $x21
	//DEBUG_VALUE: ufs_mq_make_request:alloc_data <- [DW_OP_plus_uconst 16, DW_OP_deref] $sp
	//DEBUG_VALUE: ufs_mq_make_request:wb_acct <- $w24
	//DEBUG_VALUE: test_ti_thread_flag:flag <- 1
	//DEBUG_VALUE: test_bit:nr <- 1
	//DEBUG_VALUE: test_bit:addr <- $x8
	.loc	161 106 16 is_stmt 1    // kernel/include/asm-generic/bitops/non-atomic.h:106:16
	ldr	x8, [x8]
.Ltmp490:
	.loc	9 119 3                 // kernel/block/blk-mq.h:119:3
	tbnz	w8, #1, .LBB13_66
.Ltmp491:
.LBB13_32:
	//DEBUG_VALUE: ufs_mq_make_sync_request:ret <- $w19
	//DEBUG_VALUE: ufs_mq_make_sync_request:bd <- [DW_OP_plus_uconst 72, DW_OP_deref] $sp
	//DEBUG_VALUE: ufs_mq_make_sync_request:sched_ds <- $x22
	//DEBUG_VALUE: ufs_mq_make_sync_request:alloc_data <- [DW_OP_plus_uconst 16] $sp
	//DEBUG_VALUE: ufs_mq_make_request:cookie <- $w20
	//DEBUG_VALUE: ufs_mq_make_request:rq <- $x21
	//DEBUG_VALUE: ufs_mq_make_request:alloc_data <- [DW_OP_plus_uconst 16, DW_OP_deref] $sp
	//DEBUG_VALUE: ufs_mq_make_request:wb_acct <- $w24
	.loc	1 1660 6                // kernel/block/mas_blk_iosched_ufs_mq.c:1660:6
	cbnz	w19, .LBB13_67
.Ltmp492:
.LBB13_33:
	.loc	1 0 6 is_stmt 0         // kernel/block/mas_blk_iosched_ufs_mq.c:0:6
	adrp	x9, __stack_chk_guard
	ldur	x8, [x29, #-72]
	ldr	x9, [x9, :lo12:__stack_chk_guard]
	cmp	x9, x8
	b.ne	.LBB13_77
// %bb.34:
	.loc	1 1801 1 is_stmt 1      // kernel/block/mas_blk_iosched_ufs_mq.c:1801:1
	mov	w0, w20
	ldp	x29, x30, [sp, #160]    // 16-byte Folded Reload
	ldp	x20, x19, [sp, #144]    // 16-byte Folded Reload
	ldp	x22, x21, [sp, #128]    // 16-byte Folded Reload
	ldp	x24, x23, [sp, #112]    // 16-byte Folded Reload
	ldp	x26, x25, [sp, #96]     // 16-byte Folded Reload
	add	sp, sp, #176            // =176
	ret
.LBB13_35:
.Ltmp493:
	//DEBUG_VALUE: ufs_mq_get_current_plug:bio <- $x19
	//DEBUG_VALUE: ufs_mq_get_plug:bio <- $x19
	//DEBUG_VALUE: ufs_mq_make_request:bio <- $x19
	//DEBUG_VALUE: ufs_mq_make_request:q <- $x20
	.loc	1 1571 6                // kernel/block/mas_blk_iosched_ufs_mq.c:1571:6
	ldr	x10, [x9, #64]
	cbz	x10, .LBB13_37
.Ltmp494:
// %bb.36:
	//DEBUG_VALUE: ufs_mq_get_current_plug:bio <- $x19
	//DEBUG_VALUE: ufs_mq_get_plug:bio <- $x19
	//DEBUG_VALUE: ufs_mq_make_request:bio <- $x19
	//DEBUG_VALUE: ufs_mq_make_request:q <- $x20
	.loc	1 0 6 is_stmt 0         // kernel/block/mas_blk_iosched_ufs_mq.c:0:6
	adrp	x11, __cfi_ufs_mq_flush_plug_list
	add	x11, x11, :lo12:__cfi_ufs_mq_flush_plug_list
	.loc	1 1571 6                // kernel/block/mas_blk_iosched_ufs_mq.c:1571:6
	cmp	x10, x11
	b.ne	.LBB13_12
.Ltmp495:
.LBB13_37:
	//DEBUG_VALUE: ufs_mq_get_current_plug:bio <- $x19
	//DEBUG_VALUE: ufs_mq_get_plug:bio <- $x19
	//DEBUG_VALUE: ufs_mq_make_request:bio <- $x19
	//DEBUG_VALUE: ufs_mq_make_request:q <- $x20
	.loc	1 1575 36 is_stmt 1     // kernel/block/mas_blk_iosched_ufs_mq.c:1575:36
	adrp	x10, __cfi_ufs_mq_flush_plug_list
	add	x10, x10, :lo12:__cfi_ufs_mq_flush_plug_list
	str	x10, [x9, #64]
	.loc	1 1576 18               // kernel/block/mas_blk_iosched_ufs_mq.c:1576:18
	ldr	x25, [x8, #2664]
.Ltmp496:
	//DEBUG_VALUE: ufs_mq_make_request:plug <- $x25
	//DEBUG_VALUE: ufs_mq_attempt_plug_merge:plug <- $x25
	//DEBUG_VALUE: ufs_mq_make_sync_request:plug <- $x25
	//DEBUG_VALUE: ufs_mq_req_add_pluglist:plg <- $x25
	.loc	1 1729 11               // kernel/block/mas_blk_iosched_ufs_mq.c:1729:11
	cbz	x25, .LBB13_13
.Ltmp497:
// %bb.38:
	//DEBUG_VALUE: ufs_mq_attempt_plug_merge:plug <- $x25
	//DEBUG_VALUE: ufs_mq_make_request:plug <- $x25
	//DEBUG_VALUE: ufs_mq_make_request:bio <- $x19
	//DEBUG_VALUE: ufs_mq_make_request:q <- $x20
	//DEBUG_VALUE: ufs_mq_attempt_plug_merge:q <- $x20
	//DEBUG_VALUE: ufs_mq_attempt_plug_merge:bio <- $x19
	//DEBUG_VALUE: ufs_mq_attempt_plug_merge:rq <- 0
	//DEBUG_VALUE: ufs_mq_attempt_plug_merge:ret <- 0
	.loc	1 0 0 is_stmt 0         // kernel/block/mas_blk_iosched_ufs_mq.c:0:0
	ldr	x21, [x25, #56]
.Ltmp498:
	//DEBUG_VALUE: ufs_mq_attempt_plug_merge:ret <- undef
	//DEBUG_VALUE: ufs_mq_attempt_plug_merge:rq <- $x21
	.loc	1 1493 45 is_stmt 1     // kernel/block/mas_blk_iosched_ufs_mq.c:1493:45
	add	x22, x25, #48           // =48
.Ltmp499:
	//DEBUG_VALUE: __mptr <- undef
	//DEBUG_VALUE: ufs_mq_attempt_plug_merge:plug_list <- $x22
	.loc	1 1495 2                // kernel/block/mas_blk_iosched_ufs_mq.c:1495:2
	cmp	x21, x22
	b.eq	.LBB13_48
.Ltmp500:
// %bb.39:
	//DEBUG_VALUE: ufs_mq_attempt_plug_merge:plug_list <- $x22
	//DEBUG_VALUE: ufs_mq_attempt_plug_merge:rq <- $x21
	//DEBUG_VALUE: ufs_mq_attempt_plug_merge:bio <- $x19
	//DEBUG_VALUE: ufs_mq_attempt_plug_merge:q <- $x20
	//DEBUG_VALUE: ufs_mq_attempt_plug_merge:plug <- $x25
	//DEBUG_VALUE: ufs_mq_make_request:plug <- $x25
	//DEBUG_VALUE: ufs_mq_make_request:bio <- $x19
	//DEBUG_VALUE: ufs_mq_make_request:q <- $x20
	.loc	1 0 0 is_stmt 0         // kernel/block/mas_blk_iosched_ufs_mq.c:0:0
	mov	x23, xzr
.Ltmp501:
.LBB13_40:                              // =>This Inner Loop Header: Depth=1
	//DEBUG_VALUE: ufs_mq_attempt_plug_merge:plug_list <- $x22
	//DEBUG_VALUE: ufs_mq_attempt_plug_merge:rq <- $x21
	//DEBUG_VALUE: ufs_mq_attempt_plug_merge:bio <- $x19
	//DEBUG_VALUE: ufs_mq_attempt_plug_merge:q <- $x20
	//DEBUG_VALUE: ufs_mq_attempt_plug_merge:plug <- $x25
	//DEBUG_VALUE: ufs_mq_make_request:plug <- $x25
	//DEBUG_VALUE: ufs_mq_make_request:bio <- $x19
	//DEBUG_VALUE: ufs_mq_make_request:q <- $x20
	.loc	1 1498 7 is_stmt 1      // kernel/block/mas_blk_iosched_ufs_mq.c:1498:7
	ldr	x8, [x21, #64]
.Ltmp502:
	.loc	1 1498 7 is_stmt 0      // kernel/block/mas_blk_iosched_ufs_mq.c:1498:7
	cmp	x8, x20
	b.ne	.LBB13_46
.Ltmp503:
// %bb.41:                              //   in Loop: Header=BB13_40 Depth=1
	//DEBUG_VALUE: ufs_mq_attempt_plug_merge:plug_list <- $x22
	//DEBUG_VALUE: ufs_mq_attempt_plug_merge:rq <- $x21
	//DEBUG_VALUE: ufs_mq_attempt_plug_merge:bio <- $x19
	//DEBUG_VALUE: ufs_mq_attempt_plug_merge:q <- $x20
	//DEBUG_VALUE: ufs_mq_attempt_plug_merge:plug <- $x25
	//DEBUG_VALUE: ufs_mq_make_request:plug <- $x25
	//DEBUG_VALUE: ufs_mq_make_request:bio <- $x19
	//DEBUG_VALUE: ufs_mq_make_request:q <- $x20
	.loc	1 1508 22 is_stmt 1     // kernel/block/mas_blk_iosched_ufs_mq.c:1508:22
	mov	x0, x21
	mov	x1, x19
	bl	blk_rq_merge_ok
	mov	x23, x21
.Ltmp504:
	.loc	1 1508 7 is_stmt 0      // kernel/block/mas_blk_iosched_ufs_mq.c:1508:7
	tbz	w0, #0, .LBB13_46
.Ltmp505:
// %bb.42:                              //   in Loop: Header=BB13_40 Depth=1
	//DEBUG_VALUE: ufs_mq_attempt_plug_merge:plug_list <- $x22
	//DEBUG_VALUE: ufs_mq_attempt_plug_merge:rq <- $x21
	//DEBUG_VALUE: ufs_mq_attempt_plug_merge:bio <- $x19
	//DEBUG_VALUE: ufs_mq_attempt_plug_merge:q <- $x20
	//DEBUG_VALUE: ufs_mq_attempt_plug_merge:plug <- $x25
	//DEBUG_VALUE: ufs_mq_make_request:plug <- $x25
	//DEBUG_VALUE: ufs_mq_make_request:bio <- $x19
	//DEBUG_VALUE: ufs_mq_make_request:q <- $x20
	.loc	1 1511 12 is_stmt 1     // kernel/block/mas_blk_iosched_ufs_mq.c:1511:12
	mov	x0, x21
	mov	x1, x19
	bl	blk_try_merge
.Ltmp506:
	//DEBUG_VALUE: el_ret <- $w0
	.loc	1 1512 7                // kernel/block/mas_blk_iosched_ufs_mq.c:1512:7
	cmp	w0, #1                  // =1
	b.eq	.LBB13_45
.Ltmp507:
// %bb.43:                              //   in Loop: Header=BB13_40 Depth=1
	//DEBUG_VALUE: el_ret <- $w0
	//DEBUG_VALUE: ufs_mq_attempt_plug_merge:plug_list <- $x22
	//DEBUG_VALUE: ufs_mq_attempt_plug_merge:rq <- $x21
	//DEBUG_VALUE: ufs_mq_attempt_plug_merge:bio <- $x19
	//DEBUG_VALUE: ufs_mq_attempt_plug_merge:q <- $x20
	//DEBUG_VALUE: ufs_mq_attempt_plug_merge:plug <- $x25
	//DEBUG_VALUE: ufs_mq_make_request:plug <- $x25
	//DEBUG_VALUE: ufs_mq_make_request:bio <- $x19
	//DEBUG_VALUE: ufs_mq_make_request:q <- $x20
	cmp	w0, #2                  // =2
	mov	x23, x21
	b.ne	.LBB13_46
.Ltmp508:
// %bb.44:                              //   in Loop: Header=BB13_40 Depth=1
	//DEBUG_VALUE: el_ret <- $w0
	//DEBUG_VALUE: ufs_mq_attempt_plug_merge:plug_list <- $x22
	//DEBUG_VALUE: ufs_mq_attempt_plug_merge:rq <- $x21
	//DEBUG_VALUE: ufs_mq_attempt_plug_merge:bio <- $x19
	//DEBUG_VALUE: ufs_mq_attempt_plug_merge:q <- $x20
	//DEBUG_VALUE: ufs_mq_attempt_plug_merge:plug <- $x25
	//DEBUG_VALUE: ufs_mq_make_request:plug <- $x25
	//DEBUG_VALUE: ufs_mq_make_request:bio <- $x19
	//DEBUG_VALUE: ufs_mq_make_request:q <- $x20
	.loc	1 1513 10               // kernel/block/mas_blk_iosched_ufs_mq.c:1513:10
	mov	x0, x20
.Ltmp509:
	mov	x1, x21
	mov	x2, x19
	bl	bio_attempt_back_merge
	mov	x23, x21
	.loc	1 1514 8                // kernel/block/mas_blk_iosched_ufs_mq.c:1514:8
	tbz	w0, #0, .LBB13_46
	b	.LBB13_51
.Ltmp510:
.LBB13_45:                              //   in Loop: Header=BB13_40 Depth=1
	//DEBUG_VALUE: el_ret <- $w0
	//DEBUG_VALUE: ufs_mq_attempt_plug_merge:plug_list <- $x22
	//DEBUG_VALUE: ufs_mq_attempt_plug_merge:rq <- $x21
	//DEBUG_VALUE: ufs_mq_attempt_plug_merge:bio <- $x19
	//DEBUG_VALUE: ufs_mq_attempt_plug_merge:q <- $x20
	//DEBUG_VALUE: ufs_mq_attempt_plug_merge:plug <- $x25
	//DEBUG_VALUE: ufs_mq_make_request:plug <- $x25
	//DEBUG_VALUE: ufs_mq_make_request:bio <- $x19
	//DEBUG_VALUE: ufs_mq_make_request:q <- $x20
	.loc	1 1517 10               // kernel/block/mas_blk_iosched_ufs_mq.c:1517:10
	mov	x0, x20
.Ltmp511:
	mov	x1, x21
	mov	x2, x19
	bl	bio_attempt_front_merge
	mov	x23, x21
	.loc	1 1518 8                // kernel/block/mas_blk_iosched_ufs_mq.c:1518:8
	tbnz	w0, #0, .LBB13_51
.Ltmp512:
.LBB13_46:                              //   in Loop: Header=BB13_40 Depth=1
	//DEBUG_VALUE: ufs_mq_attempt_plug_merge:plug_list <- $x22
	//DEBUG_VALUE: ufs_mq_attempt_plug_merge:rq <- $x21
	//DEBUG_VALUE: ufs_mq_attempt_plug_merge:bio <- $x19
	//DEBUG_VALUE: ufs_mq_attempt_plug_merge:q <- $x20
	//DEBUG_VALUE: ufs_mq_attempt_plug_merge:plug <- $x25
	//DEBUG_VALUE: ufs_mq_make_request:plug <- $x25
	//DEBUG_VALUE: ufs_mq_make_request:bio <- $x19
	//DEBUG_VALUE: ufs_mq_make_request:q <- $x20
	//DEBUG_VALUE: ufs_mq_attempt_plug_merge:ret <- undef
	//DEBUG_VALUE: __mptr <- undef
	.loc	1 0 0 is_stmt 0         // kernel/block/mas_blk_iosched_ufs_mq.c:0:0
	ldr	x21, [x21, #8]
.Ltmp513:
	//DEBUG_VALUE: ufs_mq_attempt_plug_merge:ret <- undef
	//DEBUG_VALUE: ufs_mq_attempt_plug_merge:rq <- $x21
	.loc	1 1495 2 is_stmt 1      // kernel/block/mas_blk_iosched_ufs_mq.c:1495:2
	cmp	x21, x22
	b.ne	.LBB13_40
.Ltmp514:
// %bb.47:
	//DEBUG_VALUE: ufs_mq_attempt_plug_merge:plug_list <- $x22
	//DEBUG_VALUE: ufs_mq_attempt_plug_merge:rq <- $x21
	//DEBUG_VALUE: ufs_mq_attempt_plug_merge:bio <- $x19
	//DEBUG_VALUE: ufs_mq_attempt_plug_merge:q <- $x20
	//DEBUG_VALUE: ufs_mq_attempt_plug_merge:plug <- $x25
	//DEBUG_VALUE: ufs_mq_make_request:plug <- $x25
	//DEBUG_VALUE: ufs_mq_make_request:bio <- $x19
	//DEBUG_VALUE: ufs_mq_make_request:q <- $x20
	.loc	1 0 2 is_stmt 0         // kernel/block/mas_blk_iosched_ufs_mq.c:0:2
	mov	w26, wzr
	mov	w22, wzr
.Ltmp515:
	b	.LBB13_14
.Ltmp516:
.LBB13_48:
	//DEBUG_VALUE: ufs_mq_make_request:plug <- $x25
	//DEBUG_VALUE: ufs_mq_make_request:bio <- $x19
	//DEBUG_VALUE: ufs_mq_make_request:q <- $x20
	mov	w26, wzr
	mov	w22, wzr
	.loc	1 1713 18 is_stmt 1     // kernel/block/mas_blk_iosched_ufs_mq.c:1713:18
	mov	x23, xzr
	b	.LBB13_14
.Ltmp517:
.LBB13_49:
	//DEBUG_VALUE: ufs_mq_make_flush_request:dispatch_op <- $w9
	//DEBUG_VALUE: ufs_mq_make_flush_request:bio <- $x19
	//DEBUG_VALUE: ufs_mq_make_request:cookie <- $w20
	//DEBUG_VALUE: ufs_mq_make_request:rq <- $x21
	//DEBUG_VALUE: ufs_mq_make_request:alloc_data <- [DW_OP_plus_uconst 16, DW_OP_deref] $sp
	//DEBUG_VALUE: ufs_mq_make_request:wb_acct <- $w24
	//DEBUG_VALUE: ufs_mq_make_request:same_queue_rq <- $x23
	//DEBUG_VALUE: ufs_mq_make_request:bio <- $x19
	//DEBUG_VALUE: ufs_mq_bio_to_request:bio <- $x19
	.loc	1 1424 2                // kernel/block/mas_blk_iosched_ufs_mq.c:1424:2
	mov	x0, x21
	mov	x1, x19
	bl	blk_init_request_from_bio
.Ltmp518:
	.loc	1 1425 2                // kernel/block/mas_blk_iosched_ufs_mq.c:1425:2
	orr	w1, wzr, #0x1
	mov	x0, x21
	bl	blk_account_io_start
.Ltmp519:
	.loc	1 1612 3                // kernel/block/mas_blk_iosched_ufs_mq.c:1612:3
	mov	x0, x21
	bl	blk_insert_flush
	b	.LBB13_56
.Ltmp520:
.LBB13_50:
	//DEBUG_VALUE: ufs_mq_make_request:alloc_data <- [DW_OP_plus_uconst 16, DW_OP_deref] $sp
	//DEBUG_VALUE: ufs_mq_make_request:wb_acct <- $w24
	//DEBUG_VALUE: ufs_mq_make_request:same_queue_rq <- $x23
	//DEBUG_VALUE: ufs_mq_make_request:bio <- $x19
	//DEBUG_VALUE: ufs_mq_make_request:q <- $x20
	.loc	1 1747 17               // kernel/block/mas_blk_iosched_ufs_mq.c:1747:17
	ldr	x0, [x20, #88]
	.loc	1 1747 3 is_stmt 0      // kernel/block/mas_blk_iosched_ufs_mq.c:1747:3
	mov	w1, w24
	bl	__wbt_done
	.loc	1 1749 7 is_stmt 1      // kernel/block/mas_blk_iosched_ufs_mq.c:1749:7
	ldrb	w8, [x19, #19]
	tbnz	w8, #6, .LBB13_65
.Ltmp521:
.LBB13_51:
	//DEBUG_VALUE: ufs_mq_make_request:bio <- $x19
	//DEBUG_VALUE: ufs_mq_make_request:q <- $x20
	.loc	1 0 7 is_stmt 0         // kernel/block/mas_blk_iosched_ufs_mq.c:0:7
	mov	w20, #-1
.Ltmp522:
	b	.LBB13_33
.Ltmp523:
.LBB13_52:
	//DEBUG_VALUE: ufs_mq_make_request:cookie <- $w20
	//DEBUG_VALUE: ufs_mq_make_request:rq <- $x21
	//DEBUG_VALUE: ufs_mq_make_request:alloc_data <- [DW_OP_plus_uconst 16, DW_OP_deref] $sp
	//DEBUG_VALUE: ufs_mq_make_request:wb_acct <- $w24
	//DEBUG_VALUE: ufs_mq_make_request:same_queue_rq <- $x23
	//DEBUG_VALUE: ufs_mq_make_request:bio <- $x19
	.loc	1 1788 40 is_stmt 1     // kernel/block/mas_blk_iosched_ufs_mq.c:1788:40
	ldp	x23, x24, [sp, #56]
.Ltmp524:
	//DEBUG_VALUE: spin_lock:lock <- $x23
	//DEBUG_VALUE: spin_lock:lock <- $x23
	//DEBUG_VALUE: spin_unlock:lock <- $x23
	//DEBUG_VALUE: spin_unlock:lock <- $x23
	.loc	1 0 40 is_stmt 0        // kernel/block/mas_blk_iosched_ufs_mq.c:0:40
	mov	w10, #16384
	movk	w10, #12, lsl #16
.Ltmp525:
	//DEBUG_VALUE: bio_mergeable:bio <- $x19
	//DEBUG_VALUE: ufs_mq_merge_queue_io:bio <- $x19
	//DEBUG_VALUE: ufs_mq_merge_queue_io:ctx <- $x23
	//DEBUG_VALUE: ufs_mq_merge_queue_io:hctx <- $x24
	.loc	129 104 18 is_stmt 1    // kernel/include/linux/bio.h:104:18
	tst	w8, w10
.Ltmp526:
	.loc	1 1466 26               // kernel/block/mas_blk_iosched_ufs_mq.c:1466:26
	b.ne	.LBB13_54
.Ltmp527:
// %bb.53:
	//DEBUG_VALUE: ufs_mq_merge_queue_io:hctx <- $x24
	//DEBUG_VALUE: ufs_mq_merge_queue_io:ctx <- $x23
	//DEBUG_VALUE: ufs_mq_merge_queue_io:bio <- $x19
	//DEBUG_VALUE: ufs_mq_make_request:cookie <- $w20
	//DEBUG_VALUE: ufs_mq_make_request:rq <- $x21
	//DEBUG_VALUE: ufs_mq_make_request:alloc_data <- [DW_OP_plus_uconst 16, DW_OP_deref] $sp
	//DEBUG_VALUE: ufs_mq_make_request:bio <- $x19
	.loc	2 437 24                // kernel/include/linux/blkdev.h:437:24
	and	w8, w9, #0xfe
.Ltmp528:
	//DEBUG_VALUE: blk_op_is_scsi:op <- $w8
	.loc	2 427 30                // kernel/include/linux/blkdev.h:427:30
	orr	w8, w8, #0x1
.Ltmp529:
	.loc	1 1466 6                // kernel/block/mas_blk_iosched_ufs_mq.c:1466:6
	cmp	w8, #33                 // =33
	b.ne	.LBB13_70
.Ltmp530:
.LBB13_54:
	//DEBUG_VALUE: ufs_mq_merge_queue_io:hctx <- $x24
	//DEBUG_VALUE: ufs_mq_merge_queue_io:ctx <- $x23
	//DEBUG_VALUE: ufs_mq_merge_queue_io:bio <- $x19
	//DEBUG_VALUE: ufs_mq_make_request:cookie <- $w20
	//DEBUG_VALUE: ufs_mq_make_request:rq <- $x21
	//DEBUG_VALUE: ufs_mq_make_request:alloc_data <- [DW_OP_plus_uconst 16, DW_OP_deref] $sp
	//DEBUG_VALUE: ufs_mq_make_request:bio <- $x19
	//DEBUG_VALUE: ufs_mq_bio_to_request:bio <- $x19
	.loc	1 1424 2                // kernel/block/mas_blk_iosched_ufs_mq.c:1424:2
	mov	x0, x21
	mov	x1, x19
	bl	blk_init_request_from_bio
	.loc	1 1425 2                // kernel/block/mas_blk_iosched_ufs_mq.c:1425:2
	orr	w1, wzr, #0x1
	mov	x0, x21
	bl	blk_account_io_start
.Ltmp531:
	.loc	163 317 2               // kernel/include/linux/spinlock.h:317:2
	mov	x0, x23
	bl	_raw_spin_lock
.Ltmp532:
.LBB13_55:
	//DEBUG_VALUE: ufs_mq_merge_queue_io:ctx <- $x23
	//DEBUG_VALUE: ufs_mq_merge_queue_io:bio <- $x19
	//DEBUG_VALUE: ufs_mq_make_request:cookie <- $w20
	//DEBUG_VALUE: ufs_mq_make_request:rq <- $x21
	//DEBUG_VALUE: ufs_mq_make_request:alloc_data <- [DW_OP_plus_uconst 16, DW_OP_deref] $sp
	//DEBUG_VALUE: ufs_mq_make_request:bio <- $x19
	//DEBUG_LABEL: insert_rq
	.loc	1 1471 31               // kernel/block/mas_blk_iosched_ufs_mq.c:1471:31
	ldr	x1, [x24, #192]
	.loc	1 1471 3 is_stmt 0      // kernel/block/mas_blk_iosched_ufs_mq.c:1471:3
	mov	x0, x21
	bl	ufs_mq_req_insert
.Ltmp533:
	.loc	163 357 2 is_stmt 1     // kernel/include/linux/spinlock.h:357:2
	mov	x0, x23
	bl	_raw_spin_unlock
.Ltmp534:
.LBB13_56:
	//DEBUG_VALUE: ufs_mq_make_request:cookie <- $w20
	//DEBUG_VALUE: ufs_mq_make_request:rq <- $x21
	//DEBUG_VALUE: ufs_mq_make_request:alloc_data <- [DW_OP_plus_uconst 16, DW_OP_deref] $sp
	//DEBUG_VALUE: ufs_mq_make_request:bio <- $x19
	//DEBUG_LABEL: run_queue
	.loc	1 1790 34               // kernel/block/mas_blk_iosched_ufs_mq.c:1790:34
	ldr	x0, [sp, #64]
	.loc	1 1790 3 is_stmt 0      // kernel/block/mas_blk_iosched_ufs_mq.c:1790:3
	mov	w1, w22
	bl	blk_mq_run_hw_queue
.Ltmp535:
.LBB13_57:
	//DEBUG_VALUE: ufs_mq_make_request:cookie <- $w20
	//DEBUG_VALUE: ufs_mq_make_request:rq <- $x21
	//DEBUG_VALUE: ufs_mq_make_request:alloc_data <- [DW_OP_plus_uconst 16, DW_OP_deref] $sp
	//DEBUG_VALUE: ufs_mq_make_request:bio <- $x19
	.loc	1 1792 28 is_stmt 1     // kernel/block/mas_blk_iosched_ufs_mq.c:1792:28
	ldr	x8, [sp, #56]
.Ltmp536:
	//DEBUG_VALUE: blk_mq_put_ctx:ctx <- $x8
	.loc	9 115 11                // kernel/block/blk-mq.h:115:11
	ldr	x8, [x8, #144]
.Ltmp537:
	.loc	9 115 18 is_stmt 0      // kernel/block/blk-mq.h:115:18
	ldr	x8, [x8, #1808]
	.loc	9 115 32                // kernel/block/blk-mq.h:115:32
	cbz	x8, .LBB13_60
.Ltmp538:
// %bb.58:
	//DEBUG_VALUE: ufs_mq_make_request:cookie <- $w20
	//DEBUG_VALUE: ufs_mq_make_request:rq <- $x21
	//DEBUG_VALUE: ufs_mq_make_request:alloc_data <- [DW_OP_plus_uconst 16, DW_OP_deref] $sp
	//DEBUG_VALUE: ufs_mq_make_request:bio <- $x19
	.loc	9 115 62                // kernel/block/blk-mq.h:115:62
	ldr	x8, [x8, #80]
.Ltmp539:
	.loc	9 115 6                 // kernel/block/blk-mq.h:115:6
	cbz	x8, .LBB13_60
.Ltmp540:
// %bb.59:
	//DEBUG_VALUE: ufs_mq_make_request:cookie <- $w20
	//DEBUG_VALUE: ufs_mq_make_request:rq <- $x21
	//DEBUG_VALUE: ufs_mq_make_request:alloc_data <- [DW_OP_plus_uconst 16, DW_OP_deref] $sp
	//DEBUG_VALUE: ufs_mq_make_request:bio <- $x19
	.loc	9 116 3 is_stmt 1       // kernel/block/blk-mq.h:116:3
	blr	x8
	b	.LBB13_33
.Ltmp541:
.LBB13_60:
	//DEBUG_VALUE: ufs_mq_make_request:cookie <- $w20
	//DEBUG_VALUE: ufs_mq_make_request:rq <- $x21
	//DEBUG_VALUE: ufs_mq_make_request:alloc_data <- [DW_OP_plus_uconst 16, DW_OP_deref] $sp
	//DEBUG_VALUE: ufs_mq_make_request:bio <- $x19
	.loc	9 119 3                 // kernel/block/blk-mq.h:119:3
	//APP
	//NO_APP
.Ltmp542:
	.loc	158 19 2                // kernel/arch/arm64/include/asm/current.h:19:2
	//APP
	mrs x8, sp_el0
	//NO_APP
.Ltmp543:
	//DEBUG_VALUE: test_ti_thread_flag:ti <- $x8
	//DEBUG_VALUE: get_current:sp_el0 <- $x8
	//DEBUG_VALUE: get_current:sp_el0 <- $x8
	.loc	159 69 10               // kernel/include/asm-generic/preempt.h:69:10
	ldr	w9, [x8, #24]
	subs	w9, w9, #1              // =1
	str	w9, [x8, #24]
	.loc	159 69 33 is_stmt 0     // kernel/include/asm-generic/preempt.h:69:33
	b.ne	.LBB13_33
.Ltmp544:
// %bb.61:
	//DEBUG_VALUE: test_ti_thread_flag:ti <- $x8
	//DEBUG_VALUE: ufs_mq_make_request:cookie <- $w20
	//DEBUG_VALUE: ufs_mq_make_request:rq <- $x21
	//DEBUG_VALUE: ufs_mq_make_request:alloc_data <- [DW_OP_plus_uconst 16, DW_OP_deref] $sp
	//DEBUG_VALUE: ufs_mq_make_request:bio <- $x19
	//DEBUG_VALUE: test_ti_thread_flag:flag <- 1
	//DEBUG_VALUE: test_bit:nr <- 1
	//DEBUG_VALUE: test_bit:addr <- $x8
	.loc	161 106 16 is_stmt 1    // kernel/include/asm-generic/bitops/non-atomic.h:106:16
	ldr	x8, [x8]
.Ltmp545:
	.loc	9 119 3                 // kernel/block/blk-mq.h:119:3
	tbz	w8, #1, .LBB13_33
.Ltmp546:
// %bb.62:
	//DEBUG_VALUE: ufs_mq_make_request:cookie <- $w20
	//DEBUG_VALUE: ufs_mq_make_request:rq <- $x21
	//DEBUG_VALUE: ufs_mq_make_request:alloc_data <- [DW_OP_plus_uconst 16, DW_OP_deref] $sp
	//DEBUG_VALUE: ufs_mq_make_request:bio <- $x19
	.loc	9 119 3 is_stmt 0       // kernel/block/blk-mq.h:119:3
	bl	preempt_schedule
	b	.LBB13_33
.Ltmp547:
.LBB13_63:
	//DEBUG_VALUE: ufs_mq_make_sync_request_get_ret:sched_ds <- $x22
	//DEBUG_VALUE: ufs_mq_make_sync_request:sched_ds <- $x22
	//DEBUG_VALUE: ufs_mq_make_sync_request:alloc_data <- [DW_OP_plus_uconst 16] $sp
	//DEBUG_VALUE: ufs_mq_make_sync_request:bio <- $x19
	//DEBUG_VALUE: ufs_mq_make_request:cookie <- $w20
	//DEBUG_VALUE: ufs_mq_make_request:rq <- $x21
	//DEBUG_VALUE: ufs_mq_make_request:alloc_data <- [DW_OP_plus_uconst 16, DW_OP_deref] $sp
	//DEBUG_VALUE: ufs_mq_make_request:wb_acct <- $w24
	//DEBUG_VALUE: ufs_mq_make_request:same_queue_rq <- $x23
	//DEBUG_VALUE: ufs_mq_make_request:bio <- $x19
	.loc	9 0 3                   // kernel/block/blk-mq.h:0:3
	mov	x23, x21
.Ltmp548:
	//DEBUG_VALUE: ufs_mq_make_sync_request_get_ret:alloc_data <- [DW_OP_plus_uconst 16] $sp
	//DEBUG_VALUE: ufs_mq_make_sync_request_get_ret:bd <- [DW_OP_plus_uconst 72] $sp
	.loc	1 1657 8 is_stmt 1      // kernel/block/mas_blk_iosched_ufs_mq.c:1657:8
	str	x21, [sp, #72]
.Ltmp549:
	//DEBUG_VALUE: ufs_mq_make_sync_request:bd <- [DW_OP_plus_uconst 72, DW_OP_deref] $sp
	.loc	1 0 8 is_stmt 0         // kernel/block/mas_blk_iosched_ufs_mq.c:0:8
	b	.LBB13_25
.Ltmp550:
.LBB13_64:
	//DEBUG_VALUE: ufs_mq_make_sync_request:sched_ds <- $x22
	//DEBUG_VALUE: ufs_mq_make_sync_request:alloc_data <- [DW_OP_plus_uconst 16] $sp
	//DEBUG_VALUE: ufs_mq_make_sync_request:bio <- $x19
	//DEBUG_VALUE: ufs_mq_make_request:cookie <- $w20
	//DEBUG_VALUE: ufs_mq_make_request:rq <- $x21
	//DEBUG_VALUE: ufs_mq_make_request:alloc_data <- [DW_OP_plus_uconst 16, DW_OP_deref] $sp
	//DEBUG_VALUE: ufs_mq_make_request:wb_acct <- $w24
	//DEBUG_VALUE: ufs_mq_make_request:same_queue_rq <- $x23
	//DEBUG_VALUE: ufs_mq_make_request:bio <- $x19
	mov	x23, xzr
.Ltmp551:
	b	.LBB13_24
.Ltmp552:
.LBB13_65:
	//DEBUG_VALUE: ufs_mq_make_request:alloc_data <- [DW_OP_plus_uconst 16, DW_OP_deref] $sp
	//DEBUG_VALUE: ufs_mq_make_request:wb_acct <- $w24
	//DEBUG_VALUE: ufs_mq_make_request:same_queue_rq <- $x23
	//DEBUG_VALUE: ufs_mq_make_request:bio <- $x19
	//DEBUG_VALUE: ufs_mq_make_request:q <- $x20
	orr	w8, wzr, #0xc
.Ltmp553:
	//DEBUG_VALUE: bio_wouldblock_error:bio <- $x19
	.loc	129 448 2 is_stmt 1     // kernel/include/linux/bio.h:448:2
	mov	x0, x19
	.loc	129 447 17              // kernel/include/linux/bio.h:447:17
	strb	w8, [x19, #26]
	.loc	129 448 2               // kernel/include/linux/bio.h:448:2
	bl	bio_endio
	mov	w20, #-1
.Ltmp554:
	.loc	129 0 2 is_stmt 0       // kernel/include/linux/bio.h:0:2
	b	.LBB13_33
.Ltmp555:
.LBB13_66:
	//DEBUG_VALUE: ufs_mq_make_sync_request:ret <- $w19
	//DEBUG_VALUE: ufs_mq_make_sync_request:bd <- [DW_OP_plus_uconst 72, DW_OP_deref] $sp
	//DEBUG_VALUE: ufs_mq_make_sync_request:sched_ds <- $x22
	//DEBUG_VALUE: ufs_mq_make_sync_request:alloc_data <- [DW_OP_plus_uconst 16] $sp
	//DEBUG_VALUE: ufs_mq_make_request:cookie <- $w20
	//DEBUG_VALUE: ufs_mq_make_request:rq <- $x21
	//DEBUG_VALUE: ufs_mq_make_request:alloc_data <- [DW_OP_plus_uconst 16, DW_OP_deref] $sp
	//DEBUG_VALUE: ufs_mq_make_request:wb_acct <- $w24
	.loc	9 119 3 is_stmt 1       // kernel/block/blk-mq.h:119:3
	bl	preempt_schedule
.Ltmp556:
	.loc	1 1660 6                // kernel/block/mas_blk_iosched_ufs_mq.c:1660:6
	cbz	w19, .LBB13_33
.Ltmp557:
.LBB13_67:
	//DEBUG_VALUE: ufs_mq_make_sync_request:ret <- $w19
	//DEBUG_VALUE: ufs_mq_make_sync_request:bd <- [DW_OP_plus_uconst 72, DW_OP_deref] $sp
	//DEBUG_VALUE: ufs_mq_make_sync_request:sched_ds <- $x22
	//DEBUG_VALUE: ufs_mq_make_sync_request:alloc_data <- [DW_OP_plus_uconst 16] $sp
	//DEBUG_VALUE: ufs_mq_make_request:cookie <- $w20
	//DEBUG_VALUE: ufs_mq_make_request:rq <- $x21
	//DEBUG_VALUE: ufs_mq_make_request:alloc_data <- [DW_OP_plus_uconst 16, DW_OP_deref] $sp
	//DEBUG_VALUE: ufs_mq_make_request:wb_acct <- $w24
	.loc	1 0 0 is_stmt 0         // kernel/block/mas_blk_iosched_ufs_mq.c:0:0
	ldr	x0, [sp, #72]
.Ltmp558:
	.loc	1 1662 13 is_stmt 1     // kernel/block/mas_blk_iosched_ufs_mq.c:1662:13
	cmp	w19, #9                 // =9
	b.ne	.LBB13_69
.Ltmp559:
// %bb.68:
	//DEBUG_VALUE: ufs_mq_make_sync_request:ret <- $w19
	//DEBUG_VALUE: ufs_mq_make_sync_request:bd <- [DW_OP_plus_uconst 72, DW_OP_deref] $sp
	//DEBUG_VALUE: ufs_mq_make_sync_request:sched_ds <- $x22
	//DEBUG_VALUE: ufs_mq_make_sync_request:alloc_data <- [DW_OP_plus_uconst 16] $sp
	//DEBUG_VALUE: ufs_mq_make_request:cookie <- $w20
	//DEBUG_VALUE: ufs_mq_make_request:rq <- $x21
	//DEBUG_VALUE: ufs_mq_make_request:alloc_data <- [DW_OP_plus_uconst 16, DW_OP_deref] $sp
	//DEBUG_VALUE: ufs_mq_make_request:wb_acct <- $w24
	.loc	1 1666 2                // kernel/block/mas_blk_iosched_ufs_mq.c:1666:2
	bl	__blk_mq_requeue_request
	.loc	1 1670 38               // kernel/block/mas_blk_iosched_ufs_mq.c:1670:38
	ldr	x19, [x21, #64]
.Ltmp560:
	//DEBUG_VALUE: ufs_mq_requeue_sync_list:q <- $x19
	//DEBUG_VALUE: ufs_mq_requeue_sync_list:rq <- $x0
	.loc	1 1670 30 is_stmt 0     // kernel/block/mas_blk_iosched_ufs_mq.c:1670:30
	ldr	x0, [sp, #72]
.Ltmp561:
	.loc	1 1400 2 is_stmt 1      // kernel/block/mas_blk_iosched_ufs_mq.c:1400:2
	mov	x1, x19
	bl	ufs_mq_insert_sync_list
.Ltmp562:
	//DEBUG_VALUE: ufs_mq_run_delay_sync_list:delay_jiffies <- 0
	//DEBUG_VALUE: ufs_mq_run_sync_list:q <- $x19
	//DEBUG_VALUE: ufs_mq_run_delay_sync_list:q <- $x19
	.loc	1 1276 44               // kernel/block/mas_blk_iosched_ufs_mq.c:1276:44
	ldr	x19, [x19, #1800]
.Ltmp563:
	//DEBUG_VALUE: ufs_mq_run_delay_sync_list:sched_ds <- $x19
	.loc	1 1278 21               // kernel/block/mas_blk_iosched_ufs_mq.c:1278:21
	adrp	x8, mas_blk_mq_sync_disp_wq
	ldr	x1, [x8, :lo12:mas_blk_mq_sync_disp_wq]
.Ltmp564:
	.loc	77 506 9                // kernel/include/linux/workqueue.h:506:9
	orr	w0, wzr, #0x8
.Ltmp565:
	.loc	1 1279 33               // kernel/block/mas_blk_iosched_ufs_mq.c:1279:33
	add	x2, x19, #32            // =32
.Ltmp566:
	//DEBUG_VALUE: queue_delayed_work:delay <- 0
	//DEBUG_VALUE: queue_delayed_work:dwork <- $x2
	//DEBUG_VALUE: queue_delayed_work:wq <- $x1
	.loc	77 506 9                // kernel/include/linux/workqueue.h:506:9
	mov	x3, xzr
	bl	queue_delayed_work_on
.Ltmp567:
	.loc	1 1280 47               // kernel/block/mas_blk_iosched_ufs_mq.c:1280:47
	bl	ktime_get
	.loc	1 1280 45 is_stmt 0     // kernel/block/mas_blk_iosched_ufs_mq.c:1280:45
	str	x0, [x19, #8]
	b	.LBB13_33
.Ltmp568:
.LBB13_69:
	//DEBUG_VALUE: ufs_mq_make_sync_request:ret <- $w19
	//DEBUG_VALUE: ufs_mq_make_sync_request:bd <- [DW_OP_plus_uconst 72, DW_OP_deref] $sp
	//DEBUG_VALUE: ufs_mq_make_sync_request:sched_ds <- $x22
	//DEBUG_VALUE: ufs_mq_make_sync_request:alloc_data <- [DW_OP_plus_uconst 16] $sp
	//DEBUG_VALUE: ufs_mq_make_request:cookie <- $w20
	//DEBUG_VALUE: ufs_mq_make_request:rq <- $x21
	//DEBUG_VALUE: ufs_mq_make_request:alloc_data <- [DW_OP_plus_uconst 16, DW_OP_deref] $sp
	//DEBUG_VALUE: ufs_mq_make_request:wb_acct <- $w24
	.loc	1 1663 3 is_stmt 1      // kernel/block/mas_blk_iosched_ufs_mq.c:1663:3
	mov	w1, #10
	bl	blk_mq_end_request
	b	.LBB13_33
.Ltmp569:
.LBB13_70:
	//DEBUG_VALUE: ufs_mq_merge_queue_io:hctx <- $x24
	//DEBUG_VALUE: ufs_mq_merge_queue_io:ctx <- $x23
	//DEBUG_VALUE: ufs_mq_merge_queue_io:bio <- $x19
	//DEBUG_VALUE: ufs_mq_make_request:cookie <- $w20
	//DEBUG_VALUE: ufs_mq_make_request:rq <- $x21
	//DEBUG_VALUE: ufs_mq_make_request:alloc_data <- [DW_OP_plus_uconst 16, DW_OP_deref] $sp
	//DEBUG_VALUE: ufs_mq_make_request:bio <- $x19
	.loc	1 0 3 is_stmt 0         // kernel/block/mas_blk_iosched_ufs_mq.c:0:3
	str	x24, [sp, #8]           // 8-byte Folded Spill
.Ltmp570:
	//DEBUG_VALUE: ufs_mq_merge_queue_io:hctx <- [DW_OP_plus_uconst 8] [$sp+0]
	ldr	x24, [x24, #192]
.Ltmp571:
	//DEBUG_VALUE: ufs_mq_merge_queue_io:q <- $x24
	.loc	163 317 2 is_stmt 1     // kernel/include/linux/spinlock.h:317:2
	mov	x0, x23
	bl	_raw_spin_lock
.Ltmp572:
	//DEBUG_VALUE: ufs_mq_attempt_merge:bio <- $x19
	//DEBUG_VALUE: ufs_mq_attempt_merge:q <- $x24
	.loc	1 1436 6                // kernel/block/mas_blk_iosched_ufs_mq.c:1436:6
	ldrb	w8, [x19, #17]
	tbnz	w8, #3, .LBB13_76
.Ltmp573:
// %bb.71:
	//DEBUG_VALUE: ufs_mq_merge_queue_io:hctx <- [DW_OP_plus_uconst 8] [$sp+0]
	//DEBUG_VALUE: ufs_mq_attempt_merge:q <- $x24
	//DEBUG_VALUE: ufs_mq_attempt_merge:bio <- $x19
	//DEBUG_VALUE: ufs_mq_merge_queue_io:q <- $x24
	//DEBUG_VALUE: ufs_mq_merge_queue_io:ctx <- $x23
	//DEBUG_VALUE: ufs_mq_merge_queue_io:bio <- $x19
	//DEBUG_VALUE: ufs_mq_make_request:cookie <- $w20
	//DEBUG_VALUE: ufs_mq_make_request:rq <- $x21
	//DEBUG_VALUE: ufs_mq_make_request:alloc_data <- [DW_OP_plus_uconst 16, DW_OP_deref] $sp
	//DEBUG_VALUE: ufs_mq_make_request:bio <- $x19
	.loc	1 1439 6                // kernel/block/mas_blk_iosched_ufs_mq.c:1439:6
	ldr	x8, [x24, #1808]
	cbz	x8, .LBB13_76
.Ltmp574:
// %bb.72:
	//DEBUG_VALUE: ufs_mq_merge_queue_io:hctx <- [DW_OP_plus_uconst 8] [$sp+0]
	//DEBUG_VALUE: ufs_mq_attempt_merge:q <- $x24
	//DEBUG_VALUE: ufs_mq_attempt_merge:bio <- $x19
	//DEBUG_VALUE: ufs_mq_merge_queue_io:q <- $x24
	//DEBUG_VALUE: ufs_mq_merge_queue_io:ctx <- $x23
	//DEBUG_VALUE: ufs_mq_merge_queue_io:bio <- $x19
	//DEBUG_VALUE: ufs_mq_make_request:cookie <- $w20
	//DEBUG_VALUE: ufs_mq_make_request:rq <- $x21
	//DEBUG_VALUE: ufs_mq_make_request:alloc_data <- [DW_OP_plus_uconst 16, DW_OP_deref] $sp
	//DEBUG_VALUE: ufs_mq_make_request:bio <- $x19
	ldr	x26, [x8, #176]
.Ltmp575:
	//DEBUG_VALUE: priv <- $x26
	.loc	1 1439 6 is_stmt 0      // kernel/block/mas_blk_iosched_ufs_mq.c:1439:6
	cbz	x26, .LBB13_76
.Ltmp576:
// %bb.73:
	//DEBUG_VALUE: ufs_mq_merge_queue_io:hctx <- [DW_OP_plus_uconst 8] [$sp+0]
	//DEBUG_VALUE: priv <- $x26
	//DEBUG_VALUE: ufs_mq_attempt_merge:q <- $x24
	//DEBUG_VALUE: ufs_mq_attempt_merge:bio <- $x19
	//DEBUG_VALUE: ufs_mq_merge_queue_io:q <- $x24
	//DEBUG_VALUE: ufs_mq_merge_queue_io:ctx <- $x23
	//DEBUG_VALUE: ufs_mq_merge_queue_io:bio <- $x19
	//DEBUG_VALUE: ufs_mq_make_request:cookie <- $w20
	//DEBUG_VALUE: ufs_mq_make_request:rq <- $x21
	//DEBUG_VALUE: ufs_mq_make_request:alloc_data <- [DW_OP_plus_uconst 16, DW_OP_deref] $sp
	//DEBUG_VALUE: ufs_mq_make_request:bio <- $x19
	.loc	1 1444 13 is_stmt 1     // kernel/block/mas_blk_iosched_ufs_mq.c:1444:13
	ldr	x8, [x26]
	.loc	1 1445 7                // kernel/block/mas_blk_iosched_ufs_mq.c:1445:7
	ldr	x8, [x8, #40]
.Ltmp577:
	.loc	1 1444 7                // kernel/block/mas_blk_iosched_ufs_mq.c:1444:7
	cbz	x8, .LBB13_76
.Ltmp578:
// %bb.74:
	//DEBUG_VALUE: ufs_mq_merge_queue_io:hctx <- [DW_OP_plus_uconst 8] [$sp+0]
	//DEBUG_VALUE: priv <- $x26
	//DEBUG_VALUE: ufs_mq_attempt_merge:q <- $x24
	//DEBUG_VALUE: ufs_mq_attempt_merge:bio <- $x19
	//DEBUG_VALUE: ufs_mq_merge_queue_io:q <- $x24
	//DEBUG_VALUE: ufs_mq_merge_queue_io:ctx <- $x23
	//DEBUG_VALUE: ufs_mq_merge_queue_io:bio <- $x19
	//DEBUG_VALUE: ufs_mq_make_request:cookie <- $w20
	//DEBUG_VALUE: ufs_mq_make_request:rq <- $x21
	//DEBUG_VALUE: ufs_mq_make_request:alloc_data <- [DW_OP_plus_uconst 16, DW_OP_deref] $sp
	//DEBUG_VALUE: ufs_mq_make_request:bio <- $x19
	.loc	1 0 0 is_stmt 0         // kernel/block/mas_blk_iosched_ufs_mq.c:0:0
	ldr	x8, [x24, #1800]
.Ltmp579:
	//DEBUG_VALUE: ufs_mq_attempt_merge:sched_ds <- $x8
	ldr	x8, [x8, #280]
.Ltmp580:
	//DEBUG_VALUE: merged <- 0
	//DEBUG_VALUE: ufs_mq_attempt_merge:ds_lld <- $x8
	//DEBUG_VALUE: spinlock_check:lock <- [DW_OP_plus_uconst 120, DW_OP_stack_value] $x8
	//DEBUG_VALUE: spin_unlock_irqrestore:lock <- [DW_OP_plus_uconst 120, DW_OP_stack_value] $x8
	.loc	163 306 16 is_stmt 1    // kernel/include/linux/spinlock.h:306:16
	add	x25, x8, #120           // =120
.Ltmp581:
	.loc	1 1448 4                // kernel/block/mas_blk_iosched_ufs_mq.c:1448:4
	mov	x0, x25
	bl	_raw_spin_lock_irqsave
.Ltmp582:
	.loc	1 1449 19               // kernel/block/mas_blk_iosched_ufs_mq.c:1449:19
	ldr	x8, [x26]
.Ltmp583:
	.loc	1 1448 4                // kernel/block/mas_blk_iosched_ufs_mq.c:1448:4
	mov	x26, x0
.Ltmp584:
	//DEBUG_VALUE: ufs_mq_attempt_merge:flags <- $x26
	.loc	1 1449 13               // kernel/block/mas_blk_iosched_ufs_mq.c:1449:13
	mov	x0, x19
	mov	x1, x24
	.loc	1 1450 9                // kernel/block/mas_blk_iosched_ufs_mq.c:1450:9
	ldr	x8, [x8, #40]
	.loc	1 1449 13               // kernel/block/mas_blk_iosched_ufs_mq.c:1449:13
	blr	x8
	mov	w24, w0
.Ltmp585:
	//DEBUG_VALUE: spin_unlock_irqrestore:flags <- $x26
	.loc	163 372 2               // kernel/include/linux/spinlock.h:372:2
	mov	x0, x25
	mov	x1, x26
	bl	_raw_spin_unlock_irqrestore
.Ltmp586:
	.loc	1 1478 6                // kernel/block/mas_blk_iosched_ufs_mq.c:1478:6
	tbz	w24, #0, .LBB13_76
.Ltmp587:
// %bb.75:
	//DEBUG_VALUE: ufs_mq_merge_queue_io:hctx <- [DW_OP_plus_uconst 8] [$sp+0]
	//DEBUG_VALUE: ufs_mq_merge_queue_io:ctx <- $x23
	//DEBUG_VALUE: ufs_mq_merge_queue_io:bio <- $x19
	//DEBUG_VALUE: ufs_mq_make_request:cookie <- $w20
	//DEBUG_VALUE: ufs_mq_make_request:rq <- $x21
	//DEBUG_VALUE: ufs_mq_make_request:alloc_data <- [DW_OP_plus_uconst 16, DW_OP_deref] $sp
	//DEBUG_VALUE: ufs_mq_make_request:bio <- $x19
	.loc	163 357 2               // kernel/include/linux/spinlock.h:357:2
	mov	x0, x23
	bl	_raw_spin_unlock
.Ltmp588:
	.loc	1 1484 2                // kernel/block/mas_blk_iosched_ufs_mq.c:1484:2
	mov	x0, x21
	bl	blk_mq_free_request
	b	.LBB13_57
.Ltmp589:
.LBB13_76:
	//DEBUG_VALUE: ufs_mq_merge_queue_io:ctx <- $x23
	//DEBUG_VALUE: ufs_mq_merge_queue_io:bio <- $x19
	//DEBUG_VALUE: ufs_mq_make_request:cookie <- $w20
	//DEBUG_VALUE: ufs_mq_make_request:rq <- $x21
	//DEBUG_VALUE: ufs_mq_make_request:alloc_data <- [DW_OP_plus_uconst 16, DW_OP_deref] $sp
	//DEBUG_VALUE: ufs_mq_make_request:bio <- $x19
	//DEBUG_VALUE: ufs_mq_bio_to_request:bio <- $x19
	.loc	1 1424 2                // kernel/block/mas_blk_iosched_ufs_mq.c:1424:2
	mov	x0, x21
	mov	x1, x19
	bl	blk_init_request_from_bio
	.loc	1 1425 2                // kernel/block/mas_blk_iosched_ufs_mq.c:1425:2
	orr	w1, wzr, #0x1
	mov	x0, x21
	bl	blk_account_io_start
	ldr	x24, [sp, #8]           // 8-byte Folded Reload
	b	.LBB13_55
.Ltmp590:
.LBB13_77:
	.loc	1 0 2 is_stmt 0         // kernel/block/mas_blk_iosched_ufs_mq.c:0:2
	bl	__stack_chk_fail
.Lfunc_end13:
	.size	ufs_mq_make_request, .Lfunc_end13-ufs_mq_make_request
	.cfi_endproc
                                        // -- End function
	.section	.text.ufs_mq_sync_io_dispatch_work_fn,"ax",@progbits
	.hidden	ufs_mq_sync_io_dispatch_work_fn // -- Begin function ufs_mq_sync_io_dispatch_work_fn
	.globl	ufs_mq_sync_io_dispatch_work_fn
	.p2align	2
	.type	ufs_mq_sync_io_dispatch_work_fn,@function
ufs_mq_sync_io_dispatch_work_fn:        // @ufs_mq_sync_io_dispatch_work_fn
.Lfunc_begin14:
	.loc	1 2224 0 is_stmt 1      // kernel/block/mas_blk_iosched_ufs_mq.c:2224:0
	.cfi_startproc
// %bb.0:
	//DEBUG_VALUE: ufs_mq_sync_io_dispatch_work_fn:work <- $x0
	//DEBUG_VALUE: ufs_mq_sync_io_dispatch_work_fn:work <- $x0
	stp	x29, x30, [sp, #-16]!   // 16-byte Folded Spill
	mov	x29, sp
	.cfi_def_cfa w29, 16
	.cfi_offset w30, -8
	.cfi_offset w29, -16
.Ltmp591:
	//DEBUG_VALUE: __mptr <- $x0
	//DEBUG_VALUE: __mptr <- $x0
	//DEBUG_VALUE: ufs_mq_sync_io_dispatch_work_fn:mq_work <- undef
	.loc	1 2228 32 prologue_end  // kernel/block/mas_blk_iosched_ufs_mq.c:2228:32
	ldr	x0, [x0, #96]
.Ltmp592:
	.loc	1 2228 2 is_stmt 0      // kernel/block/mas_blk_iosched_ufs_mq.c:2228:2
	bl	ufs_mq_sync_dispatch
	.loc	1 2229 1 is_stmt 1      // kernel/block/mas_blk_iosched_ufs_mq.c:2229:1
	ldp	x29, x30, [sp], #16     // 16-byte Folded Reload
	ret
.Ltmp593:
.Lfunc_end14:
	.size	ufs_mq_sync_io_dispatch_work_fn, .Lfunc_end14-ufs_mq_sync_io_dispatch_work_fn
	.cfi_endproc
                                        // -- End function
	.section	.text.ufs_mq_sync_dispatch,"ax",@progbits
	.p2align	2               // -- Begin function ufs_mq_sync_dispatch
	.type	ufs_mq_sync_dispatch,@function
ufs_mq_sync_dispatch:                   // @ufs_mq_sync_dispatch
.Lfunc_begin15:
	.loc	1 2162 0                // kernel/block/mas_blk_iosched_ufs_mq.c:2162:0
	.cfi_startproc
// %bb.0:
	//DEBUG_VALUE: ufs_mq_sync_dispatch:q <- $x0
	sub	sp, sp, #112            // =112
	stp	x26, x25, [sp, #32]     // 16-byte Folded Spill
	stp	x24, x23, [sp, #48]     // 16-byte Folded Spill
	stp	x22, x21, [sp, #64]     // 16-byte Folded Spill
	stp	x20, x19, [sp, #80]     // 16-byte Folded Spill
	stp	x29, x30, [sp, #96]     // 16-byte Folded Spill
	add	x29, sp, #96            // =96
	.cfi_def_cfa w29, 16
	.cfi_offset w30, -8
	.cfi_offset w29, -16
	.cfi_offset w19, -24
	.cfi_offset w20, -32
	.cfi_offset w21, -40
	.cfi_offset w22, -48
	.cfi_offset w23, -56
	.cfi_offset w24, -64
	.cfi_offset w25, -72
	.cfi_offset w26, -80
	adrp	x8, __stack_chk_guard
	ldr	x8, [x8, :lo12:__stack_chk_guard]
	mov	x19, x0
	str	x8, [sp, #24]
.Ltmp594:
	//DEBUG_VALUE: ufs_mq_sync_dispatch:hctx <- 0
	//DEBUG_VALUE: ufs_mq_sync_dispatch:rq <- 0
	//DEBUG_VALUE: ufs_mq_sync_dispatch:q <- $x19
	.loc	1 2169 44 prologue_end  // kernel/block/mas_blk_iosched_ufs_mq.c:2169:44
	ldr	x24, [x0, #1800]
.Ltmp595:
	//DEBUG_VALUE: ufs_mq_sync_dispatch:sched_ds <- $x24
	.loc	1 2170 50               // kernel/block/mas_blk_iosched_ufs_mq.c:2170:50
	ldr	x20, [x24, #280]
.Ltmp596:
	//DEBUG_VALUE: ufs_mq_sync_dispatch:ds_lld <- $x20
	//DEBUG_VALUE: ufs_mq_pick_sync_rq:ds_lld <- $x20
	//DEBUG_VALUE: atomic_sub:v <- [DW_OP_plus_uconst 88, DW_OP_stack_value] $x20
	//DEBUG_VALUE: atomic_sub:v <- [DW_OP_plus_uconst 112, DW_OP_stack_value] $x20
	//DEBUG_VALUE: spin_unlock_irqrestore:lock <- [DW_OP_plus_uconst 48, DW_OP_stack_value] $x20
	//DEBUG_VALUE: spin_unlock_irqrestore:lock <- [DW_OP_plus_uconst 48, DW_OP_stack_value] $x20
	//DEBUG_VALUE: ufs_mq_queue_rq:ds_lld <- $x20
	//DEBUG_VALUE: last_sync_io_compl_g_than:ds_lld <- $x20
	//DEBUG_VALUE: last_async_io_compl_g_than:ds_lld <- $x20
	.loc	1 2180 47               // kernel/block/mas_blk_iosched_ufs_mq.c:2180:47
	bl	ktime_get
	add	x21, x20, #48           // =48
	add	x25, x20, #72           // =72
.Ltmp597:
	//DEBUG_VALUE: list_empty_careful:head <- $x25
	.loc	1 0 47 is_stmt 0        // kernel/block/mas_blk_iosched_ufs_mq.c:0:47
	add	x26, x20, #96           // =96
.Ltmp598:
	//DEBUG_VALUE: list_empty_careful:head <- $x26
	.loc	1 2180 45               // kernel/block/mas_blk_iosched_ufs_mq.c:2180:45
	str	x0, [x24, #16]
	b	.LBB15_2
.Ltmp599:
.LBB15_1:                               //   in Loop: Header=BB15_2 Depth=1
	//DEBUG_VALUE: ufs_mq_sync_dispatch:ret <- $w0
	//DEBUG_VALUE: ufs_mq_sync_dispatch:bd <- [DW_OP_plus_uconst 8, DW_OP_deref] $sp
	//DEBUG_VALUE: ufs_mq_sync_dispatch:rq <- $x22
	//DEBUG_VALUE: ufs_mq_sync_dispatch:ds_lld <- $x20
	//DEBUG_VALUE: ufs_mq_sync_dispatch:sched_ds <- $x24
	//DEBUG_VALUE: ufs_mq_sync_dispatch:q <- $x19
	.loc	1 2217 3 is_stmt 1      // kernel/block/mas_blk_iosched_ufs_mq.c:2217:3
	mov	w1, #10
	mov	x0, x22
.Ltmp600:
	bl	blk_mq_end_request
.Ltmp601:
.LBB15_2:                               // =>This Inner Loop Header: Depth=1
	//DEBUG_VALUE: list_empty_careful:head <- $x25
	//DEBUG_VALUE: spin_unlock_irqrestore:lock <- [DW_OP_plus_uconst 48, DW_OP_stack_value] $x20
	//DEBUG_VALUE: spin_unlock_irqrestore:lock <- [DW_OP_plus_uconst 48, DW_OP_stack_value] $x20
	//DEBUG_VALUE: ufs_mq_pick_sync_rq:ds_lld <- $x20
	//DEBUG_VALUE: ufs_mq_sync_dispatch:ds_lld <- $x20
	//DEBUG_VALUE: ufs_mq_sync_dispatch:sched_ds <- $x24
	//DEBUG_VALUE: ufs_mq_sync_dispatch:q <- $x19
	.loc	1 2186 3                // kernel/block/mas_blk_iosched_ufs_mq.c:2186:3
	mov	x0, x21
	bl	_raw_spin_lock_irqsave
.Ltmp602:
	.loc	157 221 33              // kernel/include/linux/list.h:221:33
	ldr	x8, [x25]
.Ltmp603:
	//DEBUG_VALUE: list_empty_careful:next <- $x8
	.loc	1 2186 3                // kernel/block/mas_blk_iosched_ufs_mq.c:2186:3
	mov	x1, x0
.Ltmp604:
	//DEBUG_VALUE: ufs_mq_sync_dispatch:flags <- $x1
	//DEBUG_VALUE: spin_unlock_irqrestore:flags <- $x1
	//DEBUG_VALUE: spin_unlock_irqrestore:flags <- $x1
	.loc	157 222 24              // kernel/include/linux/list.h:222:24
	cmp	x8, x25
	b.eq	.LBB15_4
.Ltmp605:
.LBB15_3:                               //   in Loop: Header=BB15_2 Depth=1
	//DEBUG_VALUE: ufs_mq_sync_dispatch:flags <- $x1
	//DEBUG_VALUE: ufs_mq_pick_sync_rq:ds_lld <- $x20
	//DEBUG_VALUE: ufs_mq_sync_dispatch:ds_lld <- $x20
	//DEBUG_VALUE: ufs_mq_sync_dispatch:sched_ds <- $x24
	//DEBUG_VALUE: ufs_mq_sync_dispatch:q <- $x19
	//DEBUG_VALUE: atomic_sub:i <- 1
	.loc	153 114 1               // kernel/arch/arm64/include/asm/atomic_ll_sc.h:114:1
	add	x8, x20, #88            // =88
	//APP
	// atomic_sub
	prfm	pstl1strm, [x8]
1:	ldxr	w9, [x8]
	sub	w9, w9, #1
	stxr	w10, w9, [x8]
	cbnz	w10, 1b
	//NO_APP
.Ltmp606:
	//DEBUG_VALUE: atomic_sub:tmp <- undef
	//DEBUG_VALUE: atomic_sub:result <- undef
	.loc	153 0 1 is_stmt 0       // kernel/arch/arm64/include/asm/atomic_ll_sc.h:0:1
	mov	x8, x25
.Ltmp607:
	ldr	x22, [x8]
.Ltmp608:
	//DEBUG_VALUE: ufs_mq_queue_rq:rq <- $x22
	//DEBUG_VALUE: blk_rq_is_passthrough:rq <- $x22
	//DEBUG_VALUE: blk_rq_is_scsi:rq <- $x22
	//DEBUG_VALUE: ufs_mq_sync_dispatch:rq <- $x22
	cbnz	x22, .LBB15_8
	b	.LBB15_12
.Ltmp609:
.LBB15_4:                               //   in Loop: Header=BB15_2 Depth=1
	//DEBUG_VALUE: ufs_mq_sync_dispatch:flags <- $x1
	//DEBUG_VALUE: list_empty_careful:next <- $x8
	//DEBUG_VALUE: list_empty_careful:head <- $x25
	//DEBUG_VALUE: ufs_mq_pick_sync_rq:ds_lld <- $x20
	//DEBUG_VALUE: ufs_mq_sync_dispatch:ds_lld <- $x20
	//DEBUG_VALUE: ufs_mq_sync_dispatch:sched_ds <- $x24
	//DEBUG_VALUE: ufs_mq_sync_dispatch:q <- $x19
	.loc	157 222 42 is_stmt 1    // kernel/include/linux/list.h:222:42
	ldr	x8, [x20, #80]
.Ltmp610:
	.loc	1 1806 6                // kernel/block/mas_blk_iosched_ufs_mq.c:1806:6
	cmp	x8, x25
	b.ne	.LBB15_3
.Ltmp611:
// %bb.5:                               //   in Loop: Header=BB15_2 Depth=1
	//DEBUG_VALUE: ufs_mq_sync_dispatch:flags <- $x1
	//DEBUG_VALUE: ufs_mq_pick_sync_rq:ds_lld <- $x20
	//DEBUG_VALUE: ufs_mq_sync_dispatch:ds_lld <- $x20
	//DEBUG_VALUE: ufs_mq_sync_dispatch:sched_ds <- $x24
	//DEBUG_VALUE: ufs_mq_sync_dispatch:q <- $x19
	.loc	157 221 33              // kernel/include/linux/list.h:221:33
	ldr	x8, [x26]
.Ltmp612:
	//DEBUG_VALUE: list_empty_careful:next <- $x8
	.loc	157 222 24              // kernel/include/linux/list.h:222:24
	cmp	x8, x26
	b.ne	.LBB15_7
.Ltmp613:
// %bb.6:                               //   in Loop: Header=BB15_2 Depth=1
	//DEBUG_VALUE: list_empty_careful:next <- $x8
	//DEBUG_VALUE: ufs_mq_sync_dispatch:flags <- $x1
	//DEBUG_VALUE: ufs_mq_pick_sync_rq:ds_lld <- $x20
	//DEBUG_VALUE: ufs_mq_sync_dispatch:ds_lld <- $x20
	//DEBUG_VALUE: ufs_mq_sync_dispatch:sched_ds <- $x24
	//DEBUG_VALUE: ufs_mq_sync_dispatch:q <- $x19
	.loc	157 222 42 is_stmt 0    // kernel/include/linux/list.h:222:42
	ldr	x8, [x20, #104]
.Ltmp614:
	.loc	1 1811 6 is_stmt 1      // kernel/block/mas_blk_iosched_ufs_mq.c:1811:6
	cmp	x8, x26
	b.eq	.LBB15_12
.Ltmp615:
.LBB15_7:                               //   in Loop: Header=BB15_2 Depth=1
	//DEBUG_VALUE: ufs_mq_sync_dispatch:flags <- $x1
	//DEBUG_VALUE: ufs_mq_pick_sync_rq:ds_lld <- $x20
	//DEBUG_VALUE: ufs_mq_sync_dispatch:ds_lld <- $x20
	//DEBUG_VALUE: ufs_mq_sync_dispatch:sched_ds <- $x24
	//DEBUG_VALUE: ufs_mq_sync_dispatch:q <- $x19
	//DEBUG_VALUE: atomic_sub:i <- 1
	.loc	153 114 1               // kernel/arch/arm64/include/asm/atomic_ll_sc.h:114:1
	add	x8, x20, #112           // =112
	//APP
	// atomic_sub
	prfm	pstl1strm, [x8]
1:	ldxr	w9, [x8]
	sub	w9, w9, #1
	stxr	w10, w9, [x8]
	cbnz	w10, 1b
	//NO_APP
.Ltmp616:
	//DEBUG_VALUE: atomic_sub:tmp <- undef
	//DEBUG_VALUE: atomic_sub:result <- undef
	.loc	153 0 1 is_stmt 0       // kernel/arch/arm64/include/asm/atomic_ll_sc.h:0:1
	mov	x8, x26
.Ltmp617:
	ldr	x22, [x8]
.Ltmp618:
	//DEBUG_VALUE: ufs_mq_queue_rq:rq <- $x22
	//DEBUG_VALUE: blk_rq_is_passthrough:rq <- $x22
	//DEBUG_VALUE: blk_rq_is_scsi:rq <- $x22
	//DEBUG_VALUE: ufs_mq_sync_dispatch:rq <- $x22
	.loc	1 2188 7 is_stmt 1      // kernel/block/mas_blk_iosched_ufs_mq.c:2188:7
	cbz	x22, .LBB15_12
.Ltmp619:
.LBB15_8:                               //   in Loop: Header=BB15_2 Depth=1
	//DEBUG_VALUE: ufs_mq_sync_dispatch:rq <- $x22
	//DEBUG_VALUE: blk_rq_is_scsi:rq <- $x22
	//DEBUG_VALUE: blk_rq_is_passthrough:rq <- $x22
	//DEBUG_VALUE: ufs_mq_queue_rq:rq <- $x22
	//DEBUG_VALUE: ufs_mq_sync_dispatch:flags <- $x1
	//DEBUG_VALUE: ufs_mq_sync_dispatch:ds_lld <- $x20
	//DEBUG_VALUE: ufs_mq_sync_dispatch:sched_ds <- $x24
	//DEBUG_VALUE: ufs_mq_sync_dispatch:q <- $x19
	//DEBUG_VALUE: list_del_init:entry <- $x22
	//DEBUG_VALUE: __list_del_entry:entry <- $x22
	.loc	157 120 33              // kernel/include/linux/list.h:120:33
	ldp	x8, x9, [x22]
.Ltmp620:
	//DEBUG_VALUE: __list_del:prev <- $x9
	//DEBUG_VALUE: __list_del:next <- $x8
	.loc	163 372 2               // kernel/include/linux/spinlock.h:372:2
	mov	x0, x21
.Ltmp621:
	.loc	157 105 13              // kernel/include/linux/list.h:105:13
	str	x9, [x8, #8]
.Ltmp622:
	//DEBUG_VALUE: __write_once_size:p <- $x9
	//DEBUG_VALUE: __write_once_size:size <- 8
	//DEBUG_VALUE: __write_once_size:res <- undef
	.loc	154 210 31              // kernel/include/linux/compiler.h:210:31
	str	x8, [x9]
.Ltmp623:
	//DEBUG_VALUE: __write_once_size:p <- $x22
	//DEBUG_VALUE: __write_once_size:size <- 8
	//DEBUG_VALUE: __write_once_size:res <- undef
	//DEBUG_VALUE: INIT_LIST_HEAD:list <- $x22
	.loc	154 210 31 is_stmt 0    // kernel/include/linux/compiler.h:210:31
	str	x22, [x22]
.Ltmp624:
	.loc	157 29 13 is_stmt 1     // kernel/include/linux/list.h:29:13
	str	x22, [x22, #8]
.Ltmp625:
	.loc	163 372 2               // kernel/include/linux/spinlock.h:372:2
	bl	_raw_spin_unlock_irqrestore
.Ltmp626:
	.loc	1 2196 40               // kernel/block/mas_blk_iosched_ufs_mq.c:2196:40
	ldr	x8, [x22, #72]
.Ltmp627:
	.loc	9 78 28                 // kernel/block/blk-mq.h:78:28
	ldr	x9, [x19, #320]
	.loc	9 78 12 is_stmt 0       // kernel/block/blk-mq.h:78:12
	ldr	x10, [x19, #344]
.Ltmp628:
	.loc	1 2196 48 is_stmt 1     // kernel/block/mas_blk_iosched_ufs_mq.c:2196:48
	ldrsw	x8, [x8, #64]
.Ltmp629:
	//DEBUG_VALUE: blk_mq_map_queue:cpu <- undef
	//DEBUG_VALUE: blk_mq_map_queue:q <- $x19
	.loc	9 78 25                 // kernel/block/blk-mq.h:78:25
	ldr	w8, [x9, x8, lsl #2]
	.loc	9 78 9 is_stmt 0        // kernel/block/blk-mq.h:78:9
	ldr	x8, [x10, x8, lsl #3]
.Ltmp630:
	//DEBUG_VALUE: __ufs_mq_queue_rq_internal:hctx <- $x8
	//DEBUG_VALUE: ufs_mq_sync_dispatch:hctx <- $x8
	.loc	1 2197 9 is_stmt 1      // kernel/block/mas_blk_iosched_ufs_mq.c:2197:9
	str	x22, [sp, #8]
.Ltmp631:
	//DEBUG_VALUE: ufs_mq_queue_rq:q <- $x19
	//DEBUG_VALUE: ufs_mq_queue_rq:bd <- [DW_OP_plus_uconst 8] $sp
	//DEBUG_VALUE: ufs_mq_sync_dispatch:bd <- [DW_OP_plus_uconst 8, DW_OP_deref] $sp
	//DEBUG_VALUE: ufs_mq_queue_rq:hctx <- $x8
	.loc	2 437 24                // kernel/include/linux/blkdev.h:437:24
	ldr	w9, [x22, #84]
	and	w9, w9, #0xfc
.Ltmp632:
	.loc	2 447 28                // kernel/include/linux/blkdev.h:447:28
	orr	w9, w9, #0x3
.Ltmp633:
	.loc	1 1267 6                // kernel/block/mas_blk_iosched_ufs_mq.c:1267:6
	cmp	w9, #35                 // =35
	b.eq	.LBB15_11
.Ltmp634:
// %bb.9:                               //   in Loop: Header=BB15_2 Depth=1
	//DEBUG_VALUE: ufs_mq_queue_rq:hctx <- $x8
	//DEBUG_VALUE: ufs_mq_sync_dispatch:bd <- [DW_OP_plus_uconst 8, DW_OP_deref] $sp
	//DEBUG_VALUE: ufs_mq_queue_rq:bd <- [DW_OP_plus_uconst 8] $sp
	//DEBUG_VALUE: ufs_mq_queue_rq:q <- $x19
	//DEBUG_VALUE: ufs_mq_sync_dispatch:hctx <- $x8
	//DEBUG_VALUE: ufs_mq_sync_dispatch:rq <- $x22
	//DEBUG_VALUE: ufs_mq_queue_rq:rq <- $x22
	//DEBUG_VALUE: ufs_mq_sync_dispatch:ds_lld <- $x20
	//DEBUG_VALUE: ufs_mq_sync_dispatch:sched_ds <- $x24
	//DEBUG_VALUE: ufs_mq_sync_dispatch:q <- $x19
	.loc	1 1269 9                // kernel/block/mas_blk_iosched_ufs_mq.c:1269:9
	add	x3, sp, #8              // =8
	mov	x0, x22
	mov	x1, x8
	mov	x2, x20
	mov	x4, x19
	bl	__ufs_mq_queue_rq
.Ltmp635:
	//DEBUG_VALUE: ufs_mq_sync_dispatch:ret <- $w0
	.loc	1 2199 7                // kernel/block/mas_blk_iosched_ufs_mq.c:2199:7
	cbz	w0, .LBB15_2
.Ltmp636:
.LBB15_10:                              //   in Loop: Header=BB15_2 Depth=1
	//DEBUG_VALUE: ufs_mq_sync_dispatch:ret <- $w0
	//DEBUG_VALUE: ufs_mq_sync_dispatch:bd <- [DW_OP_plus_uconst 8, DW_OP_deref] $sp
	//DEBUG_VALUE: ufs_mq_sync_dispatch:rq <- $x22
	//DEBUG_VALUE: ufs_mq_sync_dispatch:ds_lld <- $x20
	//DEBUG_VALUE: ufs_mq_sync_dispatch:sched_ds <- $x24
	//DEBUG_VALUE: ufs_mq_sync_dispatch:q <- $x19
	cmp	w0, #9                  // =9
	b.eq	.LBB15_15
	b	.LBB15_1
.Ltmp637:
.LBB15_11:                              //   in Loop: Header=BB15_2 Depth=1
	//DEBUG_VALUE: ufs_mq_queue_rq:hctx <- $x8
	//DEBUG_VALUE: ufs_mq_sync_dispatch:bd <- [DW_OP_plus_uconst 8, DW_OP_deref] $sp
	//DEBUG_VALUE: ufs_mq_queue_rq:bd <- [DW_OP_plus_uconst 8] $sp
	//DEBUG_VALUE: ufs_mq_queue_rq:q <- $x19
	//DEBUG_VALUE: ufs_mq_sync_dispatch:hctx <- $x8
	//DEBUG_VALUE: __ufs_mq_queue_rq_internal:hctx <- $x8
	//DEBUG_VALUE: ufs_mq_sync_dispatch:rq <- $x22
	//DEBUG_VALUE: ufs_mq_queue_rq:rq <- $x22
	//DEBUG_VALUE: ufs_mq_sync_dispatch:ds_lld <- $x20
	//DEBUG_VALUE: ufs_mq_sync_dispatch:sched_ds <- $x24
	//DEBUG_VALUE: ufs_mq_sync_dispatch:q <- $x19
	//DEBUG_VALUE: __ufs_mq_queue_rq_internal:q <- $x19
	//DEBUG_VALUE: __ufs_mq_queue_rq_internal:bd <- [DW_OP_plus_uconst 8] $sp
	//DEBUG_VALUE: __ufs_mq_queue_rq_internal:ds_lld <- undef
	.loc	1 1213 11               // kernel/block/mas_blk_iosched_ufs_mq.c:1213:11
	ldr	x9, [x19, #312]
	.loc	1 1213 8 is_stmt 0      // kernel/block/mas_blk_iosched_ufs_mq.c:1213:8
	add	x1, sp, #8              // =8
	mov	x0, x8
	.loc	1 1213 19               // kernel/block/mas_blk_iosched_ufs_mq.c:1213:19
	ldr	x9, [x9]
	.loc	1 1213 8                // kernel/block/mas_blk_iosched_ufs_mq.c:1213:8
	blr	x9
.Ltmp638:
	.loc	1 1214 32 is_stmt 1     // kernel/block/mas_blk_iosched_ufs_mq.c:1214:32
	ldr	x8, [sp, #8]
	.loc	1 1213 8                // kernel/block/mas_blk_iosched_ufs_mq.c:1213:8
	mov	w23, w0
.Ltmp639:
	//DEBUG_VALUE: __ufs_mq_queue_rq_internal:ret <- undef
	.loc	1 1214 2                // kernel/block/mas_blk_iosched_ufs_mq.c:1214:2
	mov	w1, #10
	mov	x0, x8
	bl	mas_blk_latency_req_check
.Ltmp640:
	.loc	1 1268 10               // kernel/block/mas_blk_iosched_ufs_mq.c:1268:10
	and	w0, w23, #0xff
.Ltmp641:
	//DEBUG_VALUE: ufs_mq_sync_dispatch:ret <- $w0
	.loc	1 2199 7                // kernel/block/mas_blk_iosched_ufs_mq.c:2199:7
	cbz	w0, .LBB15_2
	b	.LBB15_10
.Ltmp642:
.LBB15_12:
	//DEBUG_VALUE: ufs_mq_sync_dispatch:flags <- $x1
	//DEBUG_VALUE: ufs_mq_sync_dispatch:ds_lld <- $x20
	//DEBUG_VALUE: ufs_mq_sync_dispatch:sched_ds <- $x24
	//DEBUG_VALUE: ufs_mq_sync_dispatch:q <- $x19
	.loc	163 372 2               // kernel/include/linux/spinlock.h:372:2
	mov	x0, x21
	bl	_raw_spin_unlock_irqrestore
.Ltmp643:
.LBB15_13:
	//DEBUG_VALUE: ufs_mq_sync_dispatch:ds_lld <- $x20
	//DEBUG_VALUE: ufs_mq_sync_dispatch:sched_ds <- $x24
	.loc	1 2220 46               // kernel/block/mas_blk_iosched_ufs_mq.c:2220:46
	bl	ktime_get
	.loc	1 2220 44 is_stmt 0     // kernel/block/mas_blk_iosched_ufs_mq.c:2220:44
	str	x0, [x24, #24]
	adrp	x9, __stack_chk_guard
	ldr	x8, [sp, #24]
	ldr	x9, [x9, :lo12:__stack_chk_guard]
	cmp	x9, x8
	b.ne	.LBB15_20
.Ltmp644:
// %bb.14:
	//DEBUG_VALUE: ufs_mq_sync_dispatch:ds_lld <- $x20
	//DEBUG_VALUE: ufs_mq_sync_dispatch:sched_ds <- $x24
	.loc	1 2221 1 is_stmt 1      // kernel/block/mas_blk_iosched_ufs_mq.c:2221:1
	ldp	x29, x30, [sp, #96]     // 16-byte Folded Reload
	ldp	x20, x19, [sp, #80]     // 16-byte Folded Reload
.Ltmp645:
	ldp	x22, x21, [sp, #64]     // 16-byte Folded Reload
	ldp	x24, x23, [sp, #48]     // 16-byte Folded Reload
.Ltmp646:
	ldp	x26, x25, [sp, #32]     // 16-byte Folded Reload
	add	sp, sp, #112            // =112
	ret
.LBB15_15:
.Ltmp647:
	//DEBUG_VALUE: ufs_mq_sync_dispatch:ret <- $w0
	//DEBUG_VALUE: ufs_mq_sync_dispatch:bd <- [DW_OP_plus_uconst 8, DW_OP_deref] $sp
	//DEBUG_VALUE: ufs_mq_sync_dispatch:rq <- $x22
	//DEBUG_VALUE: ufs_mq_sync_dispatch:ds_lld <- $x20
	//DEBUG_VALUE: ufs_mq_sync_dispatch:sched_ds <- $x24
	//DEBUG_VALUE: ufs_mq_sync_dispatch:q <- $x19
	.loc	1 0 1 is_stmt 0         // kernel/block/mas_blk_iosched_ufs_mq.c:0:1
	mov	w21, #37888
.Ltmp648:
	.loc	1 2202 4 is_stmt 1      // kernel/block/mas_blk_iosched_ufs_mq.c:2202:4
	mov	x0, x22
.Ltmp649:
	.loc	1 0 4 is_stmt 0         // kernel/block/mas_blk_iosched_ufs_mq.c:0:4
	movk	w21, #30517, lsl #16
	.loc	1 2202 4                // kernel/block/mas_blk_iosched_ufs_mq.c:2202:4
	bl	__blk_mq_requeue_request
	.loc	1 2203 4 is_stmt 1      // kernel/block/mas_blk_iosched_ufs_mq.c:2203:4
	mov	x0, x22
	mov	x1, x19
	bl	ufs_mq_insert_sync_list
.Ltmp650:
	.loc	1 2209 17               // kernel/block/mas_blk_iosched_ufs_mq.c:2209:17
	bl	ktime_get
.Ltmp651:
	//DEBUG_VALUE: last_sync_io_compl_g_than:ms <- 2000
	//DEBUG_VALUE: last_sync_io_compl_g_than:base <- $x0
	//DEBUG_VALUE: ktime_after:cmp1 <- $x0
	//DEBUG_VALUE: ktime_compare:cmp1 <- $x0
	.loc	1 517 30                // kernel/block/mas_blk_iosched_ufs_mq.c:517:30
	ldr	x8, [x20, #200]
.Ltmp652:
	//DEBUG_VALUE: ktime_add_ms:msec <- 2000
	//DEBUG_VALUE: ktime_add_ms:kt <- $x8
	.loc	26 200 9                // kernel/include/linux/ktime.h:200:9
	add	x8, x8, x21
.Ltmp653:
	//DEBUG_VALUE: ktime_compare:cmp2 <- $x8
	//DEBUG_VALUE: ktime_after:cmp2 <- $x8
	.loc	1 2209 48               // kernel/block/mas_blk_iosched_ufs_mq.c:2209:48
	cmp	x8, x0
	b.ge	.LBB15_18
.Ltmp654:
// %bb.16:
	//DEBUG_VALUE: ufs_mq_sync_dispatch:bd <- [DW_OP_plus_uconst 8, DW_OP_deref] $sp
	//DEBUG_VALUE: ufs_mq_sync_dispatch:rq <- $x22
	//DEBUG_VALUE: ufs_mq_sync_dispatch:ds_lld <- $x20
	//DEBUG_VALUE: ufs_mq_sync_dispatch:sched_ds <- $x24
	//DEBUG_VALUE: ufs_mq_sync_dispatch:q <- $x19
	.loc	1 2211 14               // kernel/block/mas_blk_iosched_ufs_mq.c:2211:14
	bl	ktime_get
.Ltmp655:
	//DEBUG_VALUE: last_async_io_compl_g_than:ms <- 2000
	//DEBUG_VALUE: last_async_io_compl_g_than:base <- $x0
	//DEBUG_VALUE: ktime_after:cmp1 <- $x0
	//DEBUG_VALUE: ktime_compare:cmp1 <- $x0
	.loc	1 525 30                // kernel/block/mas_blk_iosched_ufs_mq.c:525:30
	ldr	x8, [x20, #208]
.Ltmp656:
	//DEBUG_VALUE: ktime_add_ms:msec <- 2000
	//DEBUG_VALUE: ktime_add_ms:kt <- $x8
	.loc	26 200 9                // kernel/include/linux/ktime.h:200:9
	add	x8, x8, x21
.Ltmp657:
	//DEBUG_VALUE: ktime_compare:cmp2 <- $x8
	//DEBUG_VALUE: ktime_after:cmp2 <- $x8
	.loc	1 2208 8                // kernel/block/mas_blk_iosched_ufs_mq.c:2208:8
	cmp	x8, x0
	b.ge	.LBB15_18
.Ltmp658:
// %bb.17:
	//DEBUG_VALUE: ufs_mq_sync_dispatch:bd <- [DW_OP_plus_uconst 8, DW_OP_deref] $sp
	//DEBUG_VALUE: ufs_mq_sync_dispatch:rq <- $x22
	//DEBUG_VALUE: ufs_mq_sync_dispatch:ds_lld <- $x20
	//DEBUG_VALUE: ufs_mq_sync_dispatch:sched_ds <- $x24
	//DEBUG_VALUE: ufs_mq_sync_dispatch:q <- $x19
	//DEBUG_VALUE: ufs_mq_run_delay_sync_list:q <- $x19
	//DEBUG_VALUE: ufs_mq_run_delay_sync_list:delay_jiffies <- 1
	.loc	1 1276 44               // kernel/block/mas_blk_iosched_ufs_mq.c:1276:44
	ldr	x19, [x19, #1800]
.Ltmp659:
	//DEBUG_VALUE: ufs_mq_run_delay_sync_list:sched_ds <- $x19
	.loc	1 1278 21               // kernel/block/mas_blk_iosched_ufs_mq.c:1278:21
	adrp	x8, mas_blk_mq_sync_disp_wq
	ldr	x1, [x8, :lo12:mas_blk_mq_sync_disp_wq]
.Ltmp660:
	.loc	77 506 9                // kernel/include/linux/workqueue.h:506:9
	orr	w0, wzr, #0x8
.Ltmp661:
	.loc	1 1279 33               // kernel/block/mas_blk_iosched_ufs_mq.c:1279:33
	add	x2, x19, #32            // =32
.Ltmp662:
	//DEBUG_VALUE: queue_delayed_work:delay <- 1
	//DEBUG_VALUE: queue_delayed_work:dwork <- $x2
	//DEBUG_VALUE: queue_delayed_work:wq <- $x1
	.loc	77 506 9                // kernel/include/linux/workqueue.h:506:9
	orr	w3, wzr, #0x1
	b	.LBB15_19
.Ltmp663:
.LBB15_18:
	//DEBUG_VALUE: ufs_mq_sync_dispatch:bd <- [DW_OP_plus_uconst 8, DW_OP_deref] $sp
	//DEBUG_VALUE: ufs_mq_sync_dispatch:rq <- $x22
	//DEBUG_VALUE: ufs_mq_sync_dispatch:ds_lld <- $x20
	//DEBUG_VALUE: ufs_mq_sync_dispatch:sched_ds <- $x24
	//DEBUG_VALUE: ufs_mq_sync_dispatch:q <- $x19
	//DEBUG_VALUE: ufs_mq_run_delay_sync_list:q <- $x19
	//DEBUG_VALUE: ufs_mq_run_delay_sync_list:delay_jiffies <- 0
	.loc	1 1276 44               // kernel/block/mas_blk_iosched_ufs_mq.c:1276:44
	ldr	x19, [x19, #1800]
.Ltmp664:
	//DEBUG_VALUE: ufs_mq_run_delay_sync_list:sched_ds <- $x19
	.loc	1 1278 21               // kernel/block/mas_blk_iosched_ufs_mq.c:1278:21
	adrp	x8, mas_blk_mq_sync_disp_wq
	ldr	x1, [x8, :lo12:mas_blk_mq_sync_disp_wq]
.Ltmp665:
	.loc	77 506 9                // kernel/include/linux/workqueue.h:506:9
	orr	w0, wzr, #0x8
.Ltmp666:
	.loc	1 1279 33               // kernel/block/mas_blk_iosched_ufs_mq.c:1279:33
	add	x2, x19, #32            // =32
.Ltmp667:
	//DEBUG_VALUE: queue_delayed_work:delay <- 0
	//DEBUG_VALUE: queue_delayed_work:dwork <- $x2
	//DEBUG_VALUE: queue_delayed_work:wq <- $x1
	.loc	77 506 9                // kernel/include/linux/workqueue.h:506:9
	mov	x3, xzr
.Ltmp668:
.LBB15_19:
	//DEBUG_VALUE: ufs_mq_sync_dispatch:bd <- [DW_OP_plus_uconst 8, DW_OP_deref] $sp
	//DEBUG_VALUE: ufs_mq_sync_dispatch:rq <- $x22
	//DEBUG_VALUE: ufs_mq_sync_dispatch:ds_lld <- $x20
	//DEBUG_VALUE: ufs_mq_sync_dispatch:sched_ds <- $x24
	.loc	1 0 0 is_stmt 0         // kernel/block/mas_blk_iosched_ufs_mq.c:0:0
	bl	queue_delayed_work_on
	bl	ktime_get
	str	x0, [x19, #8]
	b	.LBB15_13
.Ltmp669:
.LBB15_20:
	//DEBUG_VALUE: ufs_mq_sync_dispatch:ds_lld <- $x20
	//DEBUG_VALUE: ufs_mq_sync_dispatch:sched_ds <- $x24
	bl	__stack_chk_fail
.Lfunc_end15:
	.size	ufs_mq_sync_dispatch, .Lfunc_end15-ufs_mq_sync_dispatch
	.cfi_endproc
                                        // -- End function
	.section	.text.ufs_mq_write_throttle_check_timer_expire,"ax",@progbits
	.hidden	ufs_mq_write_throttle_check_timer_expire // -- Begin function ufs_mq_write_throttle_check_timer_expire
	.globl	ufs_mq_write_throttle_check_timer_expire
	.p2align	2
	.type	ufs_mq_write_throttle_check_timer_expire,@function
ufs_mq_write_throttle_check_timer_expire: // @ufs_mq_write_throttle_check_timer_expire
.Lfunc_begin16:
	.loc	1 2677 0 is_stmt 1      // kernel/block/mas_blk_iosched_ufs_mq.c:2677:0
	.cfi_startproc
// %bb.0:
	//DEBUG_VALUE: ufs_mq_write_throttle_check_timer_expire:data <- $x0
	stp	x20, x19, [sp, #-32]!   // 16-byte Folded Spill
	stp	x29, x30, [sp, #16]     // 16-byte Folded Spill
	add	x29, sp, #16            // =16
	.cfi_def_cfa w29, 16
	.cfi_offset w30, -8
	.cfi_offset w29, -16
	.cfi_offset w19, -24
	.cfi_offset w20, -32
.Ltmp670:
	.loc	163 306 16 prologue_end // kernel/include/linux/spinlock.h:306:16
	add	x20, x0, #328           // =328
	mov	x19, x0
.Ltmp671:
	//DEBUG_VALUE: spinlock_check:lock <- [DW_OP_plus_uconst 328, DW_OP_stack_value] $x19
	//DEBUG_VALUE: ufs_mq_write_throttle_check_timer_expire:sched_ds_lld <- $x19
	//DEBUG_VALUE: ufs_mq_write_throttle_check_timer_expire:data <- $x19
	.loc	1 2682 2                // kernel/block/mas_blk_iosched_ufs_mq.c:2682:2
	mov	x0, x20
	bl	_raw_spin_lock_irqsave
	mov	x1, x0
.Ltmp672:
	//DEBUG_VALUE: ufs_mq_write_throttle_check_timer_expire:flags <- $x1
	.loc	1 0 2 is_stmt 0         // kernel/block/mas_blk_iosched_ufs_mq.c:0:2
	orr	w8, wzr, #0x1
.Ltmp673:
	.loc	163 372 2 is_stmt 1     // kernel/include/linux/spinlock.h:372:2
	mov	x0, x20
.Ltmp674:
	.loc	1 2683 42               // kernel/block/mas_blk_iosched_ufs_mq.c:2683:42
	strb	w8, [x19, #352]
.Ltmp675:
	//DEBUG_VALUE: spin_unlock_irqrestore:flags <- $x1
	//DEBUG_VALUE: spin_unlock_irqrestore:lock <- [DW_OP_plus_uconst 328, DW_OP_stack_value] $x19
	.loc	163 372 2               // kernel/include/linux/spinlock.h:372:2
	bl	_raw_spin_unlock_irqrestore
.Ltmp676:
	.loc	1 2685 2                // kernel/block/mas_blk_iosched_ufs_mq.c:2685:2
	mov	x0, x19
	bl	ufs_mq_async_disp_inflt_lmt_decision
	.loc	1 2686 1                // kernel/block/mas_blk_iosched_ufs_mq.c:2686:1
	ldp	x29, x30, [sp, #16]     // 16-byte Folded Reload
	ldp	x20, x19, [sp], #32     // 16-byte Folded Reload
.Ltmp677:
	ret
.Ltmp678:
.Lfunc_end16:
	.size	ufs_mq_write_throttle_check_timer_expire, .Lfunc_end16-ufs_mq_write_throttle_check_timer_expire
	.cfi_endproc
                                        // -- End function
	.section	.text.ufs_mq_async_disp_inflt_lmt_decision,"ax",@progbits
	.p2align	2               // -- Begin function ufs_mq_async_disp_inflt_lmt_decision
	.type	ufs_mq_async_disp_inflt_lmt_decision,@function
ufs_mq_async_disp_inflt_lmt_decision:   // @ufs_mq_async_disp_inflt_lmt_decision
.Lfunc_begin17:
	.loc	1 2646 0                // kernel/block/mas_blk_iosched_ufs_mq.c:2646:0
	.cfi_startproc
// %bb.0:
	//DEBUG_VALUE: ufs_mq_async_disp_inflt_lmt_decision:ds_lld <- $x0
	str	x19, [sp, #-32]!        // 8-byte Folded Spill
	stp	x29, x30, [sp, #16]     // 16-byte Folded Spill
	add	x29, sp, #16            // =16
	.cfi_def_cfa w29, 16
	.cfi_offset w30, -8
	.cfi_offset w29, -16
	.cfi_offset w19, -32
.Ltmp679:
	.loc	1 2520 9 prologue_end   // kernel/block/mas_blk_iosched_ufs_mq.c:2520:9
	ldr	x8, [x0]
.Ltmp680:
	//DEBUG_VALUE: __mptr <- $x8
	.loc	1 2647 30               // kernel/block/mas_blk_iosched_ufs_mq.c:2647:30
	str	wzr, [x0, #276]
.Ltmp681:
	//DEBUG_VALUE: get_tag_set_from_ds_lld:ds_lld <- $x19
	//DEBUG_VALUE: ufs_mq_async_normal_mode_inflt_lmt_calc:ds_lld <- $x19
	//DEBUG_VALUE: __mptr <- undef
	.loc	1 0 30 is_stmt 0        // kernel/block/mas_blk_iosched_ufs_mq.c:0:30
	mov	x19, x0
.Ltmp682:
	//DEBUG_VALUE: ufs_mq_async_disp_inflt_lmt_decision:ds_lld <- $x19
	.loc	1 2529 36 is_stmt 1     // kernel/block/mas_blk_iosched_ufs_mq.c:2529:36
	ldr	w8, [x8, #580]
.Ltmp683:
	//DEBUG_VALUE: __read_once_size:p <- [DW_OP_plus_uconst 20, DW_OP_stack_value] $x19
	//DEBUG_VALUE: __read_once_size:size <- 4
	//DEBUG_VALUE: __read_once_size:res <- undef
	.loc	154 183 2               // kernel/include/linux/compiler.h:183:2
	ldr	w10, [x0, #20]
.Ltmp684:
	.loc	154 183 2 is_stmt 0     // kernel/include/linux/compiler.h:183:2
	ldr	w9, [x0, #272]
.Ltmp685:
	.loc	1 2529 50 is_stmt 1     // kernel/block/mas_blk_iosched_ufs_mq.c:2529:50
	sub	w8, w8, w10
.Ltmp686:
	//DEBUG_VALUE: __read_once_size:p <- [DW_OP_plus_uconst 272, DW_OP_stack_value] $x19
	//DEBUG_VALUE: __read_once_size:size <- 4
	//DEBUG_VALUE: __read_once_size:res <- undef
	//DEBUG_VALUE: ufs_mq_async_normal_mode_inflt_lmt_calc:resrvd_tag_remain <- $w8
	.loc	1 2532 2                // kernel/block/mas_blk_iosched_ufs_mq.c:2532:2
	cmp	w9, #3                  // =3
	b.hi	.LBB17_2
.Ltmp687:
// %bb.1:
	//DEBUG_VALUE: ufs_mq_async_normal_mode_inflt_lmt_calc:resrvd_tag_remain <- $w8
	//DEBUG_VALUE: __read_once_size:p <- [DW_OP_plus_uconst 272, DW_OP_stack_value] $x19
	//DEBUG_VALUE: __read_once_size:p <- [DW_OP_plus_uconst 20, DW_OP_stack_value] $x19
	//DEBUG_VALUE: ufs_mq_async_disp_inflt_lmt_decision:ds_lld <- $x19
	.loc	1 0 2 is_stmt 0         // kernel/block/mas_blk_iosched_ufs_mq.c:0:2
	adrp	x10, .LJTI17_0
	add	x10, x10, :lo12:.LJTI17_0
	adr	x11, .LBB17_2
	ldrb	w12, [x10, x9]
	add	x11, x11, x12, lsl #2
	br	x11
.Ltmp688:
.LBB17_2:
	//DEBUG_VALUE: ufs_mq_async_normal_mode_inflt_lmt_calc:resrvd_tag_remain <- $w8
	//DEBUG_VALUE: __read_once_size:p <- [DW_OP_plus_uconst 272, DW_OP_stack_value] $x19
	//DEBUG_VALUE: __read_once_size:p <- [DW_OP_plus_uconst 20, DW_OP_stack_value] $x19
	//DEBUG_VALUE: ufs_mq_async_disp_inflt_lmt_decision:ds_lld <- $x19
	ldr	w9, [x19, #176]
	cmp	w8, #4                  // =4
	orr	w8, wzr, #0xc
.Ltmp689:
	orr	w10, wzr, #0x10
	b	.LBB17_6
.Ltmp690:
.LBB17_3:
	//DEBUG_VALUE: ufs_mq_async_normal_mode_inflt_lmt_calc:resrvd_tag_remain <- $w8
	//DEBUG_VALUE: ufs_mq_async_disp_inflt_lmt_decision:ds_lld <- $x19
	//DEBUG_VALUE: ufs_mq_async_inflt_lmt_update:ds_lld <- $x19
	//DEBUG_VALUE: ufs_mq_async_inflt_lmt_update:limit <- 10
	.loc	1 2501 14 is_stmt 1     // kernel/block/mas_blk_iosched_ufs_mq.c:2501:14
	ldr	w8, [x19, #176]
.Ltmp691:
	.loc	1 2501 6 is_stmt 0      // kernel/block/mas_blk_iosched_ufs_mq.c:2501:6
	cmp	w8, #10                 // =10
	b.eq	.LBB17_10
.Ltmp692:
// %bb.4:
	//DEBUG_VALUE: ufs_mq_async_inflt_lmt_update:ds_lld <- $x19
	//DEBUG_VALUE: ufs_mq_async_disp_inflt_lmt_decision:ds_lld <- $x19
	.loc	1 0 6                   // kernel/block/mas_blk_iosched_ufs_mq.c:0:6
	mov	w8, #10
	b	.LBB17_9
.Ltmp693:
.LBB17_5:
	//DEBUG_VALUE: ufs_mq_async_normal_mode_inflt_lmt_calc:resrvd_tag_remain <- $w8
	//DEBUG_VALUE: ufs_mq_async_disp_inflt_lmt_decision:ds_lld <- $x19
	.loc	1 2501 14               // kernel/block/mas_blk_iosched_ufs_mq.c:2501:14
	ldr	w9, [x19, #176]
.Ltmp694:
	.loc	1 2546 11 is_stmt 1     // kernel/block/mas_blk_iosched_ufs_mq.c:2546:11
	cmp	w8, #4                  // =4
	orr	w8, wzr, #0x8
.Ltmp695:
	.loc	1 0 11 is_stmt 0        // kernel/block/mas_blk_iosched_ufs_mq.c:0:11
	orr	w10, wzr, #0xc
.Ltmp696:
.LBB17_6:
	//DEBUG_VALUE: ufs_mq_async_disp_inflt_lmt_decision:ds_lld <- $x19
	csel	w8, w10, w8, lo
.Ltmp697:
	//DEBUG_VALUE: ufs_mq_async_inflt_lmt_update:ds_lld <- $x19
	//DEBUG_VALUE: ufs_mq_async_inflt_lmt_update:limit <- $w8
	//DEBUG_VALUE: ufs_mq_async_normal_mode_inflt_lmt_calc:limit <- $w8
	cmp	w9, w8
	b.ne	.LBB17_9
	b	.LBB17_10
.Ltmp698:
.LBB17_7:
	//DEBUG_VALUE: ufs_mq_async_normal_mode_inflt_lmt_calc:resrvd_tag_remain <- $w8
	//DEBUG_VALUE: ufs_mq_async_disp_inflt_lmt_decision:ds_lld <- $x19
	//DEBUG_VALUE: ufs_mq_async_inflt_lmt_update:ds_lld <- $x19
	//DEBUG_VALUE: ufs_mq_async_inflt_lmt_update:limit <- 14
	.loc	1 2501 14 is_stmt 1     // kernel/block/mas_blk_iosched_ufs_mq.c:2501:14
	ldr	w8, [x19, #176]
.Ltmp699:
	.loc	1 2501 6 is_stmt 0      // kernel/block/mas_blk_iosched_ufs_mq.c:2501:6
	cmp	w8, #14                 // =14
	b.eq	.LBB17_10
.Ltmp700:
// %bb.8:
	//DEBUG_VALUE: ufs_mq_async_inflt_lmt_update:ds_lld <- $x19
	//DEBUG_VALUE: ufs_mq_async_disp_inflt_lmt_decision:ds_lld <- $x19
	.loc	1 0 6                   // kernel/block/mas_blk_iosched_ufs_mq.c:0:6
	orr	w8, wzr, #0xe
.Ltmp701:
.LBB17_9:
	//DEBUG_VALUE: ufs_mq_async_disp_inflt_lmt_decision:ds_lld <- $x19
	str	w8, [x19, #176]
	bl	ktime_get
	str	x0, [x19, #216]
.Ltmp702:
.LBB17_10:
	//DEBUG_VALUE: ufs_mq_async_disp_inflt_lmt_decision:ds_lld <- $x19
	.loc	1 2674 1 is_stmt 1      // kernel/block/mas_blk_iosched_ufs_mq.c:2674:1
	ldp	x29, x30, [sp, #16]     // 16-byte Folded Reload
	ldr	x19, [sp], #32          // 8-byte Folded Reload
.Ltmp703:
	ret
.Ltmp704:
.Lfunc_end17:
	.size	ufs_mq_async_disp_inflt_lmt_decision, .Lfunc_end17-ufs_mq_async_disp_inflt_lmt_decision
	.cfi_endproc
	.section	.rodata.ufs_mq_async_disp_inflt_lmt_decision,"a",@progbits
.LJTI17_0:
	.byte	(.LBB17_2-.LBB17_2)>>2
	.byte	(.LBB17_7-.LBB17_2)>>2
	.byte	(.LBB17_3-.LBB17_2)>>2
	.byte	(.LBB17_5-.LBB17_2)>>2
                                        // -- End function
	.section	.text.ufs_mq_write_throttle_handler,"ax",@progbits
	.hidden	ufs_mq_write_throttle_handler // -- Begin function ufs_mq_write_throttle_handler
	.globl	ufs_mq_write_throttle_handler
	.p2align	2
	.type	ufs_mq_write_throttle_handler,@function
ufs_mq_write_throttle_handler:          // @ufs_mq_write_throttle_handler
.Lfunc_begin18:
	.loc	1 2689 0                // kernel/block/mas_blk_iosched_ufs_mq.c:2689:0
	.cfi_startproc
// %bb.0:
	//DEBUG_VALUE: ufs_mq_write_throttle_handler:q <- $x0
	str	x21, [sp, #-48]!        // 8-byte Folded Spill
	stp	x20, x19, [sp, #16]     // 16-byte Folded Spill
	stp	x29, x30, [sp, #32]     // 16-byte Folded Spill
	add	x29, sp, #32            // =32
	.cfi_def_cfa w29, 16
	.cfi_offset w30, -8
	.cfi_offset w29, -16
	.cfi_offset w19, -24
	.cfi_offset w20, -32
	.cfi_offset w21, -48
.Ltmp705:
	.loc	1 2691 44 prologue_end  // kernel/block/mas_blk_iosched_ufs_mq.c:2691:44
	ldr	x8, [x0, #1800]
.Ltmp706:
	//DEBUG_VALUE: ufs_mq_write_throttle_handler:sched_ds <- $x8
	.loc	1 0 44 is_stmt 0        // kernel/block/mas_blk_iosched_ufs_mq.c:0:44
	mov	w19, w1
	//DEBUG_VALUE: ufs_mq_write_throttle_handler:q <- $x0
	.loc	1 2692 56 is_stmt 1     // kernel/block/mas_blk_iosched_ufs_mq.c:2692:56
	ldr	x21, [x8, #280]
.Ltmp707:
	//DEBUG_VALUE: spinlock_check:lock <- [DW_OP_plus_uconst 328, DW_OP_stack_value] $x21
	//DEBUG_VALUE: ufs_mq_write_throttle_handler:sched_ds_lld <- $x21
	.loc	163 306 16              // kernel/include/linux/spinlock.h:306:16
	add	x20, x21, #328          // =328
.Ltmp708:
	.loc	1 2695 2                // kernel/block/mas_blk_iosched_ufs_mq.c:2695:2
	mov	x0, x20
.Ltmp709:
	bl	_raw_spin_lock_irqsave
.Ltmp710:
	.loc	1 0 0 is_stmt 0         // kernel/block/mas_blk_iosched_ufs_mq.c:0:0
	tst	w19, #0x1
	mov	w8, #5
	mov	w9, #20
.Ltmp711:
	.loc	1 2695 2                // kernel/block/mas_blk_iosched_ufs_mq.c:2695:2
	mov	x1, x0
.Ltmp712:
	//DEBUG_VALUE: ufs_mq_write_throttle_handler:flags <- $x1
	.loc	1 0 0                   // kernel/block/mas_blk_iosched_ufs_mq.c:0:0
	csel	w8, w9, w8, ne
.Ltmp713:
	.loc	163 372 2 is_stmt 1     // kernel/include/linux/spinlock.h:372:2
	mov	x0, x20
.Ltmp714:
	.loc	1 2696 42               // kernel/block/mas_blk_iosched_ufs_mq.c:2696:42
	strb	wzr, [x21, #352]
.Ltmp715:
	.loc	1 0 0 is_stmt 0         // kernel/block/mas_blk_iosched_ufs_mq.c:0:0
	str	w8, [x21, #176]
.Ltmp716:
	//DEBUG_VALUE: spin_unlock_irqrestore:flags <- $x1
	//DEBUG_VALUE: spin_unlock_irqrestore:lock <- [DW_OP_plus_uconst 328, DW_OP_stack_value] $x21
	.loc	163 372 2 is_stmt 1     // kernel/include/linux/spinlock.h:372:2
	bl	_raw_spin_unlock_irqrestore
.Ltmp717:
	.loc	1 2711 5                // kernel/block/mas_blk_iosched_ufs_mq.c:2711:5
	adrp	x8, jiffies
	ldr	x8, [x8, :lo12:jiffies]
	.loc	1 2710 27               // kernel/block/mas_blk_iosched_ufs_mq.c:2710:27
	add	x0, x21, #280           // =280
	.loc	1 2711 13               // kernel/block/mas_blk_iosched_ufs_mq.c:2711:13
	add	x1, x8, #250            // =250
	.loc	1 2710 2                // kernel/block/mas_blk_iosched_ufs_mq.c:2710:2
	bl	mod_timer
	.loc	1 2712 1                // kernel/block/mas_blk_iosched_ufs_mq.c:2712:1
	ldp	x29, x30, [sp, #32]     // 16-byte Folded Reload
	ldp	x20, x19, [sp, #16]     // 16-byte Folded Reload
	ldr	x21, [sp], #48          // 8-byte Folded Reload
.Ltmp718:
	ret
.Ltmp719:
.Lfunc_end18:
	.size	ufs_mq_write_throttle_handler, .Lfunc_end18-ufs_mq_write_throttle_handler
	.cfi_endproc
                                        // -- End function
	.section	.text.ufs_mq_async_io_dispatch_work_fn,"ax",@progbits
	.hidden	ufs_mq_async_io_dispatch_work_fn // -- Begin function ufs_mq_async_io_dispatch_work_fn
	.globl	ufs_mq_async_io_dispatch_work_fn
	.p2align	2
	.type	ufs_mq_async_io_dispatch_work_fn,@function
ufs_mq_async_io_dispatch_work_fn:       // @ufs_mq_async_io_dispatch_work_fn
.Lfunc_begin19:
	.loc	1 2757 0                // kernel/block/mas_blk_iosched_ufs_mq.c:2757:0
	.cfi_startproc
// %bb.0:
	//DEBUG_VALUE: ufs_mq_async_io_dispatch_work_fn:work <- $x0
	sub	sp, sp, #112            // =112
	str	x25, [sp, #32]          // 8-byte Folded Spill
	stp	x24, x23, [sp, #48]     // 16-byte Folded Spill
	stp	x22, x21, [sp, #64]     // 16-byte Folded Spill
	stp	x20, x19, [sp, #80]     // 16-byte Folded Spill
	stp	x29, x30, [sp, #96]     // 16-byte Folded Spill
	add	x29, sp, #96            // =96
	.cfi_def_cfa w29, 16
	.cfi_offset w30, -8
	.cfi_offset w29, -16
	.cfi_offset w19, -24
	.cfi_offset w20, -32
	.cfi_offset w21, -40
	.cfi_offset w22, -48
	.cfi_offset w23, -56
	.cfi_offset w24, -64
	.cfi_offset w25, -80
	adrp	x8, __stack_chk_guard
	ldr	x8, [x8, :lo12:__stack_chk_guard]
	str	x8, [sp, #24]
.Ltmp720:
	//DEBUG_VALUE: ufs_mq_async_io_dispatch_work_fn:mq_work <- undef
	//DEBUG_VALUE: __mptr <- $x0
	//DEBUG_VALUE: ufs_mq_async_io_dispatch_work_fn:work <- $x0
	.loc	1 2760 33 prologue_end  // kernel/block/mas_blk_iosched_ufs_mq.c:2760:33
	ldr	x19, [x0, #96]
.Ltmp721:
	//DEBUG_VALUE: ufs_mq_async_dispatch:cur_req <- 0
	//DEBUG_VALUE: ufs_mq_async_dispatch:hctx <- 0
	//DEBUG_VALUE: ufs_mq_async_dispatch:q <- $x19
	//DEBUG_VALUE: blk_mq_map_queue:q <- $x19
	//DEBUG_VALUE: ufs_mq_queue_rq:q <- $x19
	//DEBUG_VALUE: __ufs_mq_queue_rq_internal:q <- $x19
	//DEBUG_VALUE: ufs_mq_async_requeue:q <- $x19
	//DEBUG_VALUE: ufs_mq_run_delay_async_list:q <- $x19
	.loc	1 2721 44               // kernel/block/mas_blk_iosched_ufs_mq.c:2721:44
	ldr	x25, [x19, #1800]
.Ltmp722:
	//DEBUG_VALUE: ufs_mq_async_dispatch:sched_ds <- $x25
	.loc	1 2722 50               // kernel/block/mas_blk_iosched_ufs_mq.c:2722:50
	ldr	x20, [x25, #280]
.Ltmp723:
	//DEBUG_VALUE: ufs_mq_async_dispatch:ds_lld <- $x20
	//DEBUG_VALUE: ufs_mq_queue_rq:ds_lld <- $x20
	.loc	1 2724 48               // kernel/block/mas_blk_iosched_ufs_mq.c:2724:48
	bl	ktime_get
.Ltmp724:
	.loc	1 2724 46 is_stmt 0     // kernel/block/mas_blk_iosched_ufs_mq.c:2724:46
	str	x0, [x25, #144]
	b	.LBB19_2
.Ltmp725:
.LBB19_1:                               //   in Loop: Header=BB19_2 Depth=1
	//DEBUG_VALUE: ufs_mq_async_dispatch:ret <- $w0
	//DEBUG_VALUE: ufs_mq_async_dispatch:bd <- [DW_OP_plus_uconst 8, DW_OP_deref] $sp
	//DEBUG_VALUE: ufs_mq_async_dispatch:cur_req <- $x21
	//DEBUG_VALUE: ufs_mq_async_dispatch:ds_lld <- $x20
	//DEBUG_VALUE: ufs_mq_async_dispatch:sched_ds <- $x25
	//DEBUG_VALUE: ufs_mq_async_dispatch:q <- $x19
	.loc	2 1761 13 is_stmt 1     // kernel/include/linux/blkdev.h:1761:13
	ldr	x8, [x21, #112]
.Ltmp726:
	.loc	2 1766 13               // kernel/include/linux/blkdev.h:1766:13
	ldr	w9, [x21, #104]
.Ltmp727:
	.loc	1 2741 20               // kernel/block/mas_blk_iosched_ufs_mq.c:2741:20
	add	x8, x8, x9, lsr #9
	.loc	1 2741 18 is_stmt 0     // kernel/block/mas_blk_iosched_ufs_mq.c:2741:18
	str	x8, [x19, #360]
.Ltmp728:
.LBB19_2:                               // =>This Inner Loop Header: Depth=1
	//DEBUG_VALUE: ufs_mq_async_dispatch:ds_lld <- $x20
	//DEBUG_VALUE: ufs_mq_async_dispatch:sched_ds <- $x25
	//DEBUG_VALUE: ufs_mq_async_dispatch:q <- $x19
	.loc	1 2731 3 is_stmt 1      // kernel/block/mas_blk_iosched_ufs_mq.c:2731:3
	mov	x0, x20
	bl	ufs_mq_async_disp_inflt_lmt_decision
.Ltmp729:
	//DEBUG_VALUE: ufs_mq_seek_request:priv <- 0
	//DEBUG_VALUE: ufs_mq_seek_request:ds_lld <- undef
	//DEBUG_VALUE: ufs_mq_seek_request:sched_ds <- undef
	//DEBUG_VALUE: ufs_mq_seek_request:cur_req <- 0
	//DEBUG_VALUE: ufs_mq_seek_request:q <- $x19
	.loc	1 2473 10               // kernel/block/mas_blk_iosched_ufs_mq.c:2473:10
	ldr	x8, [x19, #1808]
	.loc	1 2473 24 is_stmt 0     // kernel/block/mas_blk_iosched_ufs_mq.c:2473:24
	cbz	x8, .LBB19_12
.Ltmp730:
// %bb.3:                               //   in Loop: Header=BB19_2 Depth=1
	//DEBUG_VALUE: ufs_mq_seek_request:q <- $x19
	//DEBUG_VALUE: ufs_mq_async_dispatch:ds_lld <- $x20
	//DEBUG_VALUE: ufs_mq_async_dispatch:sched_ds <- $x25
	//DEBUG_VALUE: ufs_mq_async_dispatch:q <- $x19
	.loc	1 2473 46               // kernel/block/mas_blk_iosched_ufs_mq.c:2473:46
	ldr	x21, [x8, #176]
.Ltmp731:
	//DEBUG_VALUE: ufs_mq_seek_request:priv <- $x21
	.loc	1 2473 6                // kernel/block/mas_blk_iosched_ufs_mq.c:2473:6
	cbz	x21, .LBB19_12
.Ltmp732:
// %bb.4:                               //   in Loop: Header=BB19_2 Depth=1
	//DEBUG_VALUE: ufs_mq_seek_request:priv <- $x21
	//DEBUG_VALUE: ufs_mq_seek_request:q <- $x19
	//DEBUG_VALUE: ufs_mq_async_dispatch:ds_lld <- $x20
	//DEBUG_VALUE: ufs_mq_async_dispatch:sched_ds <- $x25
	//DEBUG_VALUE: ufs_mq_async_dispatch:q <- $x19
